
libertyMestre.elf:     file format elf32-littlearm

Sections:
Idx Name          Size      VMA       LMA       File off  Algn
  0 .isr_vector   0000010c  08000000  08000000  00010000  2**0
                  CONTENTS, ALLOC, LOAD, READONLY, DATA
  1 .text         0000468c  08000110  08000110  00010110  2**4
                  CONTENTS, ALLOC, LOAD, READONLY, CODE
  2 .rodata       00000e44  0800479c  0800479c  0001479c  2**2
                  CONTENTS, ALLOC, LOAD, READONLY, DATA
  3 .ARM.extab    00000000  080055e0  080055e0  0002004c  2**0
                  CONTENTS
  4 .ARM          00000000  080055e0  080055e0  0002004c  2**0
                  CONTENTS
  5 .preinit_array 00000000  080055e0  080055e0  0002004c  2**0
                  CONTENTS, ALLOC, LOAD, DATA
  6 .init_array   00000004  080055e0  080055e0  000155e0  2**2
                  CONTENTS, ALLOC, LOAD, DATA
  7 .fini_array   00000004  080055e4  080055e4  000155e4  2**2
                  CONTENTS, ALLOC, LOAD, DATA
  8 .data         0000004c  20000000  080055e8  00020000  2**2
                  CONTENTS, ALLOC, LOAD, DATA
  9 .bss          00002de0  20000050  08005634  00020050  2**3
                  ALLOC
 10 ._user_heap_stack 00000600  20002e30  08005634  00022e30  2**0
                  ALLOC
 11 .ARM.attributes 00000029  00000000  00000000  0002004c  2**0
                  CONTENTS, READONLY
 12 .comment      0000007b  00000000  00000000  00020075  2**0
                  CONTENTS, READONLY
 13 .debug_frame  00000188  00000000  00000000  000200f0  2**2
                  CONTENTS, READONLY, DEBUGGING

Disassembly of section .text:

08000110 <__do_global_dtors_aux>:
 8000110:	b510      	push	{r4, lr}
 8000112:	4c05      	ldr	r4, [pc, #20]	; (8000128 <__do_global_dtors_aux+0x18>)
 8000114:	7823      	ldrb	r3, [r4, #0]
 8000116:	b933      	cbnz	r3, 8000126 <__do_global_dtors_aux+0x16>
 8000118:	4b04      	ldr	r3, [pc, #16]	; (800012c <__do_global_dtors_aux+0x1c>)
 800011a:	b113      	cbz	r3, 8000122 <__do_global_dtors_aux+0x12>
 800011c:	4804      	ldr	r0, [pc, #16]	; (8000130 <__do_global_dtors_aux+0x20>)
 800011e:	f3af 8000 	nop.w
 8000122:	2301      	movs	r3, #1
 8000124:	7023      	strb	r3, [r4, #0]
 8000126:	bd10      	pop	{r4, pc}
 8000128:	20000050 	.word	0x20000050
 800012c:	00000000 	.word	0x00000000
 8000130:	08004784 	.word	0x08004784

08000134 <frame_dummy>:
 8000134:	b508      	push	{r3, lr}
 8000136:	4b03      	ldr	r3, [pc, #12]	; (8000144 <frame_dummy+0x10>)
 8000138:	b11b      	cbz	r3, 8000142 <frame_dummy+0xe>
 800013a:	4903      	ldr	r1, [pc, #12]	; (8000148 <frame_dummy+0x14>)
 800013c:	4803      	ldr	r0, [pc, #12]	; (800014c <frame_dummy+0x18>)
 800013e:	f3af 8000 	nop.w
 8000142:	bd08      	pop	{r3, pc}
 8000144:	00000000 	.word	0x00000000
 8000148:	20000054 	.word	0x20000054
 800014c:	08004784 	.word	0x08004784

08000150 <strlen>:
 8000150:	4603      	mov	r3, r0
 8000152:	f813 2b01 	ldrb.w	r2, [r3], #1
 8000156:	2a00      	cmp	r2, #0
 8000158:	d1fb      	bne.n	8000152 <strlen+0x2>
 800015a:	1a18      	subs	r0, r3, r0
 800015c:	3801      	subs	r0, #1
 800015e:	4770      	bx	lr

08000160 <wizchip_select>:
 8000160:	2200      	movs	r2, #0
 8000162:	f44f 5180 	mov.w	r1, #4096	; 0x1000
 8000166:	4801      	ldr	r0, [pc, #4]	; (800016c <wizchip_select+0xc>)
 8000168:	f001 bf4c 	b.w	8002004 <HAL_GPIO_WritePin>
 800016c:	40010c00 	.word	0x40010c00

08000170 <wizchip_deselect>:
 8000170:	2201      	movs	r2, #1
 8000172:	f44f 5180 	mov.w	r1, #4096	; 0x1000
 8000176:	4801      	ldr	r0, [pc, #4]	; (800017c <wizchip_deselect+0xc>)
 8000178:	f001 bf44 	b.w	8002004 <HAL_GPIO_WritePin>
 800017c:	40010c00 	.word	0x40010c00

08000180 <StartReadInput1>:
 8000180:	b508      	push	{r3, lr}
 8000182:	4d0d      	ldr	r5, [pc, #52]	; (80001b8 <StartReadInput1+0x38>)
 8000184:	4c0d      	ldr	r4, [pc, #52]	; (80001bc <StartReadInput1+0x3c>)
 8000186:	2108      	movs	r1, #8
 8000188:	4628      	mov	r0, r5
 800018a:	f001 ff35 	bl	8001ff8 <HAL_GPIO_ReadPin>
 800018e:	2104      	movs	r1, #4
 8000190:	7020      	strb	r0, [r4, #0]
 8000192:	4628      	mov	r0, r5
 8000194:	f001 ff30 	bl	8001ff8 <HAL_GPIO_ReadPin>
 8000198:	2102      	movs	r1, #2
 800019a:	7060      	strb	r0, [r4, #1]
 800019c:	4628      	mov	r0, r5
 800019e:	f001 ff2b 	bl	8001ff8 <HAL_GPIO_ReadPin>
 80001a2:	2101      	movs	r1, #1
 80001a4:	70a0      	strb	r0, [r4, #2]
 80001a6:	4628      	mov	r0, r5
 80001a8:	f001 ff26 	bl	8001ff8 <HAL_GPIO_ReadPin>
 80001ac:	70e0      	strb	r0, [r4, #3]
 80001ae:	2001      	movs	r0, #1
 80001b0:	f002 fe08 	bl	8002dc4 <osDelay>
 80001b4:	e7e7      	b.n	8000186 <StartReadInput1+0x6>
 80001b6:	bf00      	nop
 80001b8:	40010800 	.word	0x40010800
 80001bc:	2000006c 	.word	0x2000006c

080001c0 <StartReadInput2>:
 80001c0:	b508      	push	{r3, lr}
 80001c2:	4d0d      	ldr	r5, [pc, #52]	; (80001f8 <StartReadInput2+0x38>)
 80001c4:	4c0d      	ldr	r4, [pc, #52]	; (80001fc <StartReadInput2+0x3c>)
 80001c6:	2180      	movs	r1, #128	; 0x80
 80001c8:	4628      	mov	r0, r5
 80001ca:	f001 ff15 	bl	8001ff8 <HAL_GPIO_ReadPin>
 80001ce:	2140      	movs	r1, #64	; 0x40
 80001d0:	7120      	strb	r0, [r4, #4]
 80001d2:	4628      	mov	r0, r5
 80001d4:	f001 ff10 	bl	8001ff8 <HAL_GPIO_ReadPin>
 80001d8:	2120      	movs	r1, #32
 80001da:	7160      	strb	r0, [r4, #5]
 80001dc:	4628      	mov	r0, r5
 80001de:	f001 ff0b 	bl	8001ff8 <HAL_GPIO_ReadPin>
 80001e2:	2110      	movs	r1, #16
 80001e4:	71a0      	strb	r0, [r4, #6]
 80001e6:	4628      	mov	r0, r5
 80001e8:	f001 ff06 	bl	8001ff8 <HAL_GPIO_ReadPin>
 80001ec:	71e0      	strb	r0, [r4, #7]
 80001ee:	2001      	movs	r0, #1
 80001f0:	f002 fde8 	bl	8002dc4 <osDelay>
 80001f4:	e7e7      	b.n	80001c6 <StartReadInput2+0x6>
 80001f6:	bf00      	nop
 80001f8:	40010800 	.word	0x40010800
 80001fc:	2000006c 	.word	0x2000006c

08000200 <StartReadInput3>:
 8000200:	b508      	push	{r3, lr}
 8000202:	4e0e      	ldr	r6, [pc, #56]	; (800023c <StartReadInput3+0x3c>)
 8000204:	4c0e      	ldr	r4, [pc, #56]	; (8000240 <StartReadInput3+0x40>)
 8000206:	4d0f      	ldr	r5, [pc, #60]	; (8000244 <StartReadInput3+0x44>)
 8000208:	f44f 5100 	mov.w	r1, #8192	; 0x2000
 800020c:	4630      	mov	r0, r6
 800020e:	f001 fef3 	bl	8001ff8 <HAL_GPIO_ReadPin>
 8000212:	f44f 4180 	mov.w	r1, #16384	; 0x4000
 8000216:	7220      	strb	r0, [r4, #8]
 8000218:	4628      	mov	r0, r5
 800021a:	f001 feed 	bl	8001ff8 <HAL_GPIO_ReadPin>
 800021e:	2104      	movs	r1, #4
 8000220:	7260      	strb	r0, [r4, #9]
 8000222:	4628      	mov	r0, r5
 8000224:	f001 fee8 	bl	8001ff8 <HAL_GPIO_ReadPin>
 8000228:	2102      	movs	r1, #2
 800022a:	72a0      	strb	r0, [r4, #10]
 800022c:	4806      	ldr	r0, [pc, #24]	; (8000248 <StartReadInput3+0x48>)
 800022e:	f001 fee3 	bl	8001ff8 <HAL_GPIO_ReadPin>
 8000232:	72e0      	strb	r0, [r4, #11]
 8000234:	2001      	movs	r0, #1
 8000236:	f002 fdc5 	bl	8002dc4 <osDelay>
 800023a:	e7e5      	b.n	8000208 <StartReadInput3+0x8>
 800023c:	40010800 	.word	0x40010800
 8000240:	2000006c 	.word	0x2000006c
 8000244:	40011000 	.word	0x40011000
 8000248:	40010c00 	.word	0x40010c00

0800024c <StartReadInput4>:
 800024c:	b508      	push	{r3, lr}
 800024e:	4d0d      	ldr	r5, [pc, #52]	; (8000284 <StartReadInput4+0x38>)
 8000250:	4c0d      	ldr	r4, [pc, #52]	; (8000288 <StartReadInput4+0x3c>)
 8000252:	2140      	movs	r1, #64	; 0x40
 8000254:	4628      	mov	r0, r5
 8000256:	f001 fecf 	bl	8001ff8 <HAL_GPIO_ReadPin>
 800025a:	2120      	movs	r1, #32
 800025c:	7320      	strb	r0, [r4, #12]
 800025e:	4628      	mov	r0, r5
 8000260:	f001 feca 	bl	8001ff8 <HAL_GPIO_ReadPin>
 8000264:	2108      	movs	r1, #8
 8000266:	7360      	strb	r0, [r4, #13]
 8000268:	4628      	mov	r0, r5
 800026a:	f001 fec5 	bl	8001ff8 <HAL_GPIO_ReadPin>
 800026e:	2110      	movs	r1, #16
 8000270:	73a0      	strb	r0, [r4, #14]
 8000272:	4628      	mov	r0, r5
 8000274:	f001 fec0 	bl	8001ff8 <HAL_GPIO_ReadPin>
 8000278:	73e0      	strb	r0, [r4, #15]
 800027a:	2001      	movs	r0, #1
 800027c:	f002 fda2 	bl	8002dc4 <osDelay>
 8000280:	e7e7      	b.n	8000252 <StartReadInput4+0x6>
 8000282:	bf00      	nop
 8000284:	40010c00 	.word	0x40010c00
 8000288:	2000006c 	.word	0x2000006c

0800028c <SystemClock_Config>:
 800028c:	b510      	push	{r4, lr}
 800028e:	b090      	sub	sp, #64	; 0x40
 8000290:	2220      	movs	r2, #32
 8000292:	2100      	movs	r1, #0
 8000294:	a807      	add	r0, sp, #28
 8000296:	f004 fa1c 	bl	80046d2 <memset>
 800029a:	2100      	movs	r1, #0
 800029c:	2214      	movs	r2, #20
 800029e:	a801      	add	r0, sp, #4
 80002a0:	f004 fa17 	bl	80046d2 <memset>
 80002a4:	2201      	movs	r2, #1
 80002a6:	2310      	movs	r3, #16
 80002a8:	2402      	movs	r4, #2
 80002aa:	e9cd 230a 	strd	r2, r3, [sp, #40]	; 0x28
 80002ae:	f44f 1360 	mov.w	r3, #3670016	; 0x380000
 80002b2:	a806      	add	r0, sp, #24
 80002b4:	930f      	str	r3, [sp, #60]	; 0x3c
 80002b6:	9406      	str	r4, [sp, #24]
 80002b8:	940d      	str	r4, [sp, #52]	; 0x34
 80002ba:	f001 ff55 	bl	8002168 <HAL_RCC_OscConfig>
 80002be:	230f      	movs	r3, #15
 80002c0:	f44f 6280 	mov.w	r2, #1024	; 0x400
 80002c4:	e9cd 3401 	strd	r3, r4, [sp, #4]
 80002c8:	2300      	movs	r3, #0
 80002ca:	4621      	mov	r1, r4
 80002cc:	a801      	add	r0, sp, #4
 80002ce:	e9cd 3203 	strd	r3, r2, [sp, #12]
 80002d2:	9305      	str	r3, [sp, #20]
 80002d4:	f002 f920 	bl	8002518 <HAL_RCC_ClockConfig>
 80002d8:	b010      	add	sp, #64	; 0x40
 80002da:	bd10      	pop	{r4, pc}

080002dc <W5500_rxtx>:
 80002dc:	b57f      	push	{r0, r1, r2, r3, r4, r5, r6, lr}
 80002de:	2332      	movs	r3, #50	; 0x32
 80002e0:	f88d 000f 	strb.w	r0, [sp, #15]
 80002e4:	9300      	str	r3, [sp, #0]
 80002e6:	f10d 0217 	add.w	r2, sp, #23
 80002ea:	2301      	movs	r3, #1
 80002ec:	f10d 010f 	add.w	r1, sp, #15
 80002f0:	4803      	ldr	r0, [pc, #12]	; (8000300 <W5500_rxtx+0x24>)
 80002f2:	f002 faa7 	bl	8002844 <HAL_SPI_TransmitReceive>
 80002f6:	f89d 0017 	ldrb.w	r0, [sp, #23]
 80002fa:	b007      	add	sp, #28
 80002fc:	f85d fb04 	ldr.w	pc, [sp], #4
 8000300:	20001b50 	.word	0x20001b50

08000304 <wizchip_write>:
 8000304:	f7ff bfea 	b.w	80002dc <W5500_rxtx>

08000308 <wizchip_read>:
 8000308:	20ff      	movs	r0, #255	; 0xff
 800030a:	f7ff bfe7 	b.w	80002dc <W5500_rxtx>
	...

08000310 <network_init>:
 8000310:	b507      	push	{r0, r1, r2, lr}
 8000312:	4905      	ldr	r1, [pc, #20]	; (8000328 <network_init+0x18>)
 8000314:	2000      	movs	r0, #0
 8000316:	f001 fba7 	bl	8001a68 <ctlnetwork>
 800031a:	4669      	mov	r1, sp
 800031c:	2008      	movs	r0, #8
 800031e:	f001 fa9b 	bl	8001858 <ctlwizchip>
 8000322:	b003      	add	sp, #12
 8000324:	f85d fb04 	ldr.w	pc, [sp], #4
 8000328:	20000000 	.word	0x20000000

0800032c <save_to_flash>:
 800032c:	b5b0      	push	{r4, r5, r7, lr}
 800032e:	b08a      	sub	sp, #40	; 0x28
 8000330:	af00      	add	r7, sp, #0
 8000332:	4605      	mov	r5, r0
 8000334:	f7ff ff0c 	bl	8000150 <strlen>
 8000338:	f010 0303 	ands.w	r3, r0, #3
 800033c:	bf18      	it	ne
 800033e:	2301      	movne	r3, #1
 8000340:	eb03 0390 	add.w	r3, r3, r0, lsr #2
 8000344:	009b      	lsls	r3, r3, #2
 8000346:	330a      	adds	r3, #10
 8000348:	f023 0307 	bic.w	r3, r3, #7
 800034c:	ebad 0d03 	sub.w	sp, sp, r3
 8000350:	466c      	mov	r4, sp
 8000352:	4620      	mov	r0, r4
 8000354:	f7ff fefc 	bl	8000150 <strlen>
 8000358:	2100      	movs	r1, #0
 800035a:	4602      	mov	r2, r0
 800035c:	4620      	mov	r0, r4
 800035e:	f004 f9b8 	bl	80046d2 <memset>
 8000362:	4629      	mov	r1, r5
 8000364:	4620      	mov	r0, r4
 8000366:	f004 f9d8 	bl	800471a <strcpy>
 800036a:	4620      	mov	r0, r4
 800036c:	f7ff fef0 	bl	8000150 <strlen>
 8000370:	f010 0303 	ands.w	r3, r0, #3
 8000374:	bf18      	it	ne
 8000376:	2301      	movne	r3, #1
 8000378:	eb03 0390 	add.w	r3, r3, r0, lsr #2
 800037c:	4628      	mov	r0, r5
 800037e:	60bb      	str	r3, [r7, #8]
 8000380:	f7ff fee6 	bl	8000150 <strlen>
 8000384:	f3c0 030a 	ubfx	r3, r0, #0, #11
 8000388:	0ac0      	lsrs	r0, r0, #11
 800038a:	2b00      	cmp	r3, #0
 800038c:	bf18      	it	ne
 800038e:	3001      	addne	r0, #1
 8000390:	b280      	uxth	r0, r0
 8000392:	80f8      	strh	r0, [r7, #6]
 8000394:	f001 fc2e 	bl	8001bf4 <HAL_FLASH_Unlock>
 8000398:	f001 fc48 	bl	8001c2c <HAL_FLASH_OB_Unlock>
 800039c:	2300      	movs	r3, #0
 800039e:	4a1a      	ldr	r2, [pc, #104]	; (8000408 <save_to_flash+0xdc>)
 80003a0:	f107 010c 	add.w	r1, r7, #12
 80003a4:	623a      	str	r2, [r7, #32]
 80003a6:	88fa      	ldrh	r2, [r7, #6]
 80003a8:	f107 0018 	add.w	r0, r7, #24
 80003ac:	613b      	str	r3, [r7, #16]
 80003ae:	61bb      	str	r3, [r7, #24]
 80003b0:	627a      	str	r2, [r7, #36]	; 0x24
 80003b2:	617b      	str	r3, [r7, #20]
 80003b4:	f001 fcf4 	bl	8001da0 <HAL_FLASHEx_Erase>
 80003b8:	7178      	strb	r0, [r7, #5]
 80003ba:	697a      	ldr	r2, [r7, #20]
 80003bc:	68bb      	ldr	r3, [r7, #8]
 80003be:	429a      	cmp	r2, r3
 80003c0:	d306      	bcc.n	80003d0 <save_to_flash+0xa4>
 80003c2:	f001 fc45 	bl	8001c50 <HAL_FLASH_OB_Lock>
 80003c6:	f001 fc27 	bl	8001c18 <HAL_FLASH_Lock>
 80003ca:	3728      	adds	r7, #40	; 0x28
 80003cc:	46bd      	mov	sp, r7
 80003ce:	bdb0      	pop	{r4, r5, r7, pc}
 80003d0:	797a      	ldrb	r2, [r7, #5]
 80003d2:	f002 03ff 	and.w	r3, r2, #255	; 0xff
 80003d6:	2a00      	cmp	r2, #0
 80003d8:	d1ef      	bne.n	80003ba <save_to_flash+0x8e>
 80003da:	6939      	ldr	r1, [r7, #16]
 80003dc:	697a      	ldr	r2, [r7, #20]
 80003de:	f101 6100 	add.w	r1, r1, #134217728	; 0x8000000
 80003e2:	f854 2022 	ldr.w	r2, [r4, r2, lsl #2]
 80003e6:	f501 4120 	add.w	r1, r1, #40960	; 0xa000
 80003ea:	2002      	movs	r0, #2
 80003ec:	f001 fc64 	bl	8001cb8 <HAL_FLASH_Program>
 80003f0:	7178      	strb	r0, [r7, #5]
 80003f2:	797b      	ldrb	r3, [r7, #5]
 80003f4:	2b00      	cmp	r3, #0
 80003f6:	d1e0      	bne.n	80003ba <save_to_flash+0x8e>
 80003f8:	693b      	ldr	r3, [r7, #16]
 80003fa:	3304      	adds	r3, #4
 80003fc:	613b      	str	r3, [r7, #16]
 80003fe:	697b      	ldr	r3, [r7, #20]
 8000400:	3301      	adds	r3, #1
 8000402:	617b      	str	r3, [r7, #20]
 8000404:	e7d9      	b.n	80003ba <save_to_flash+0x8e>
 8000406:	bf00      	nop
 8000408:	0800a000 	.word	0x0800a000

0800040c <tcp_http_mt>:
 800040c:	e92d 4ff8 	stmdb	sp!, {r3, r4, r5, r6, r7, r8, r9, sl, fp, lr}
 8000410:	0146      	lsls	r6, r0, #5
 8000412:	3608      	adds	r6, #8
 8000414:	4605      	mov	r5, r0
 8000416:	f506 7040 	add.w	r0, r6, #768	; 0x300
 800041a:	460c      	mov	r4, r1
 800041c:	4617      	mov	r7, r2
 800041e:	f000 ff5f 	bl	80012e0 <WIZCHIP_READ>
 8000422:	2813      	cmp	r0, #19
 8000424:	4603      	mov	r3, r0
 8000426:	f000 822e 	beq.w	8000886 <tcp_http_mt+0x47a>
 800042a:	d809      	bhi.n	8000440 <tcp_http_mt+0x34>
 800042c:	2800      	cmp	r0, #0
 800042e:	f000 8234 	beq.w	800089a <tcp_http_mt+0x48e>
 8000432:	2300      	movs	r3, #0
 8000434:	4ac7      	ldr	r2, [pc, #796]	; (8000754 <tcp_http_mt+0x348>)
 8000436:	f842 3025 	str.w	r3, [r2, r5, lsl #2]
 800043a:	4ac7      	ldr	r2, [pc, #796]	; (8000758 <tcp_http_mt+0x34c>)
 800043c:	5553      	strb	r3, [r2, r5]
 800043e:	e01d      	b.n	800047c <tcp_http_mt+0x70>
 8000440:	2817      	cmp	r0, #23
 8000442:	d00c      	beq.n	800045e <tcp_http_mt+0x52>
 8000444:	281c      	cmp	r0, #28
 8000446:	d1f4      	bne.n	8000432 <tcp_http_mt+0x26>
 8000448:	2300      	movs	r3, #0
 800044a:	4ac2      	ldr	r2, [pc, #776]	; (8000754 <tcp_http_mt+0x348>)
 800044c:	4628      	mov	r0, r5
 800044e:	f842 3025 	str.w	r3, [r2, r5, lsl #2]
 8000452:	4ac1      	ldr	r2, [pc, #772]	; (8000758 <tcp_http_mt+0x34c>)
 8000454:	5553      	strb	r3, [r2, r5]
 8000456:	f000 fe03 	bl	8001060 <disconnect>
 800045a:	4606      	mov	r6, r0
 800045c:	e0b3      	b.n	80005c6 <tcp_http_mt+0x1ba>
 800045e:	f506 7600 	add.w	r6, r6, #512	; 0x200
 8000462:	4630      	mov	r0, r6
 8000464:	f000 ff3c 	bl	80012e0 <WIZCHIP_READ>
 8000468:	07c3      	lsls	r3, r0, #31
 800046a:	d503      	bpl.n	8000474 <tcp_http_mt+0x68>
 800046c:	2101      	movs	r1, #1
 800046e:	4630      	mov	r0, r6
 8000470:	f000 ff54 	bl	800131c <WIZCHIP_WRITE>
 8000474:	4628      	mov	r0, r5
 8000476:	f000 ffe0 	bl	800143a <getSn_RX_RSR>
 800047a:	b908      	cbnz	r0, 8000480 <tcp_http_mt+0x74>
 800047c:	2601      	movs	r6, #1
 800047e:	e0a2      	b.n	80005c6 <tcp_http_mt+0x1ba>
 8000480:	f5b0 5f80 	cmp.w	r0, #4096	; 0x1000
 8000484:	bf28      	it	cs
 8000486:	f44f 5080 	movcs.w	r0, #4096	; 0x1000
 800048a:	4621      	mov	r1, r4
 800048c:	b282      	uxth	r2, r0
 800048e:	4628      	mov	r0, r5
 8000490:	f000 feb8 	bl	8001204 <recv>
 8000494:	2300      	movs	r3, #0
 8000496:	f8df 82bc 	ldr.w	r8, [pc, #700]	; 8000754 <tcp_http_mt+0x348>
 800049a:	4faf      	ldr	r7, [pc, #700]	; (8000758 <tcp_http_mt+0x34c>)
 800049c:	1e06      	subs	r6, r0, #0
 800049e:	f848 3025 	str.w	r3, [r8, r5, lsl #2]
 80004a2:	557b      	strb	r3, [r7, r5]
 80004a4:	46c2      	mov	sl, r8
 80004a6:	46b9      	mov	r9, r7
 80004a8:	f340 808d 	ble.w	80005c6 <tcp_http_mt+0x1ba>
 80004ac:	2204      	movs	r2, #4
 80004ae:	49ab      	ldr	r1, [pc, #684]	; (800075c <tcp_http_mt+0x350>)
 80004b0:	4620      	mov	r0, r4
 80004b2:	f004 f8db 	bl	800466c <memcmp>
 80004b6:	4683      	mov	fp, r0
 80004b8:	2800      	cmp	r0, #0
 80004ba:	d1df      	bne.n	800047c <tcp_http_mt+0x70>
 80004bc:	1d26      	adds	r6, r4, #4
 80004be:	2120      	movs	r1, #32
 80004c0:	4630      	mov	r0, r6
 80004c2:	f004 f91d 	bl	8004700 <strchr>
 80004c6:	2800      	cmp	r0, #0
 80004c8:	d0d8      	beq.n	800047c <tcp_http_mt+0x70>
 80004ca:	f880 b000 	strb.w	fp, [r0]
 80004ce:	220c      	movs	r2, #12
 80004d0:	4631      	mov	r1, r6
 80004d2:	48a3      	ldr	r0, [pc, #652]	; (8000760 <tcp_http_mt+0x354>)
 80004d4:	f004 f929 	bl	800472a <strncmp>
 80004d8:	2800      	cmp	r0, #0
 80004da:	f000 81d0 	beq.w	800087e <tcp_http_mt+0x472>
 80004de:	4631      	mov	r1, r6
 80004e0:	2204      	movs	r2, #4
 80004e2:	48a0      	ldr	r0, [pc, #640]	; (8000764 <tcp_http_mt+0x358>)
 80004e4:	f004 f921 	bl	800472a <strncmp>
 80004e8:	4601      	mov	r1, r0
 80004ea:	b958      	cbnz	r0, 8000504 <tcp_http_mt+0xf8>
 80004ec:	f44f 7296 	mov.w	r2, #300	; 0x12c
 80004f0:	489d      	ldr	r0, [pc, #628]	; (8000768 <tcp_http_mt+0x35c>)
 80004f2:	f004 f8ee 	bl	80046d2 <memset>
 80004f6:	4631      	mov	r1, r6
 80004f8:	489b      	ldr	r0, [pc, #620]	; (8000768 <tcp_http_mt+0x35c>)
 80004fa:	f004 f90e 	bl	800471a <strcpy>
 80004fe:	489a      	ldr	r0, [pc, #616]	; (8000768 <tcp_http_mt+0x35c>)
 8000500:	f7ff ff14 	bl	800032c <save_to_flash>
 8000504:	2204      	movs	r2, #4
 8000506:	4631      	mov	r1, r6
 8000508:	4898      	ldr	r0, [pc, #608]	; (800076c <tcp_http_mt+0x360>)
 800050a:	f004 f90e 	bl	800472a <strncmp>
 800050e:	2800      	cmp	r0, #0
 8000510:	d15c      	bne.n	80005cc <tcp_http_mt+0x1c0>
 8000512:	4997      	ldr	r1, [pc, #604]	; (8000770 <tcp_http_mt+0x364>)
 8000514:	4620      	mov	r0, r4
 8000516:	f004 f900 	bl	800471a <strcpy>
 800051a:	4996      	ldr	r1, [pc, #600]	; (8000774 <tcp_http_mt+0x368>)
 800051c:	4620      	mov	r0, r4
 800051e:	f004 f8e0 	bl	80046e2 <strcat>
 8000522:	4995      	ldr	r1, [pc, #596]	; (8000778 <tcp_http_mt+0x36c>)
 8000524:	4620      	mov	r0, r4
 8000526:	f004 f8dc 	bl	80046e2 <strcat>
 800052a:	4994      	ldr	r1, [pc, #592]	; (800077c <tcp_http_mt+0x370>)
 800052c:	4620      	mov	r0, r4
 800052e:	f004 f8d8 	bl	80046e2 <strcat>
 8000532:	4993      	ldr	r1, [pc, #588]	; (8000780 <tcp_http_mt+0x374>)
 8000534:	4620      	mov	r0, r4
 8000536:	f004 f8d4 	bl	80046e2 <strcat>
 800053a:	4992      	ldr	r1, [pc, #584]	; (8000784 <tcp_http_mt+0x378>)
 800053c:	4620      	mov	r0, r4
 800053e:	f004 f8d0 	bl	80046e2 <strcat>
 8000542:	4991      	ldr	r1, [pc, #580]	; (8000788 <tcp_http_mt+0x37c>)
 8000544:	4620      	mov	r0, r4
 8000546:	f004 f8cc 	bl	80046e2 <strcat>
 800054a:	4990      	ldr	r1, [pc, #576]	; (800078c <tcp_http_mt+0x380>)
 800054c:	4620      	mov	r0, r4
 800054e:	f004 f8c8 	bl	80046e2 <strcat>
 8000552:	498f      	ldr	r1, [pc, #572]	; (8000790 <tcp_http_mt+0x384>)
 8000554:	4620      	mov	r0, r4
 8000556:	f004 f8c4 	bl	80046e2 <strcat>
 800055a:	498e      	ldr	r1, [pc, #568]	; (8000794 <tcp_http_mt+0x388>)
 800055c:	4620      	mov	r0, r4
 800055e:	f004 f8c0 	bl	80046e2 <strcat>
 8000562:	498d      	ldr	r1, [pc, #564]	; (8000798 <tcp_http_mt+0x38c>)
 8000564:	4620      	mov	r0, r4
 8000566:	f004 f8bc 	bl	80046e2 <strcat>
 800056a:	498c      	ldr	r1, [pc, #560]	; (800079c <tcp_http_mt+0x390>)
 800056c:	4620      	mov	r0, r4
 800056e:	f004 f8b8 	bl	80046e2 <strcat>
 8000572:	498b      	ldr	r1, [pc, #556]	; (80007a0 <tcp_http_mt+0x394>)
 8000574:	4620      	mov	r0, r4
 8000576:	f004 f8b4 	bl	80046e2 <strcat>
 800057a:	498a      	ldr	r1, [pc, #552]	; (80007a4 <tcp_http_mt+0x398>)
 800057c:	4620      	mov	r0, r4
 800057e:	f004 f8b0 	bl	80046e2 <strcat>
 8000582:	4989      	ldr	r1, [pc, #548]	; (80007a8 <tcp_http_mt+0x39c>)
 8000584:	4620      	mov	r0, r4
 8000586:	f004 f8ac 	bl	80046e2 <strcat>
 800058a:	4988      	ldr	r1, [pc, #544]	; (80007ac <tcp_http_mt+0x3a0>)
 800058c:	4620      	mov	r0, r4
 800058e:	f004 f8a8 	bl	80046e2 <strcat>
 8000592:	4987      	ldr	r1, [pc, #540]	; (80007b0 <tcp_http_mt+0x3a4>)
 8000594:	4620      	mov	r0, r4
 8000596:	f004 f8a4 	bl	80046e2 <strcat>
 800059a:	4986      	ldr	r1, [pc, #536]	; (80007b4 <tcp_http_mt+0x3a8>)
 800059c:	4620      	mov	r0, r4
 800059e:	f004 f8a0 	bl	80046e2 <strcat>
 80005a2:	4985      	ldr	r1, [pc, #532]	; (80007b8 <tcp_http_mt+0x3ac>)
 80005a4:	4620      	mov	r0, r4
 80005a6:	f004 f89c 	bl	80046e2 <strcat>
 80005aa:	4620      	mov	r0, r4
 80005ac:	f7ff fdd0 	bl	8000150 <strlen>
 80005b0:	4621      	mov	r1, r4
 80005b2:	b282      	uxth	r2, r0
 80005b4:	4628      	mov	r0, r5
 80005b6:	f000 fd97 	bl	80010e8 <send>
 80005ba:	1e06      	subs	r6, r0, #0
 80005bc:	f280 8156 	bge.w	800086c <tcp_http_mt+0x460>
 80005c0:	4628      	mov	r0, r5
 80005c2:	f000 fc57 	bl	8000e74 <close>
 80005c6:	4630      	mov	r0, r6
 80005c8:	e8bd 8ff8 	ldmia.w	sp!, {r3, r4, r5, r6, r7, r8, r9, sl, fp, pc}
 80005cc:	4631      	mov	r1, r6
 80005ce:	2206      	movs	r2, #6
 80005d0:	487a      	ldr	r0, [pc, #488]	; (80007bc <tcp_http_mt+0x3b0>)
 80005d2:	f004 f8aa 	bl	800472a <strncmp>
 80005d6:	4966      	ldr	r1, [pc, #408]	; (8000770 <tcp_http_mt+0x364>)
 80005d8:	2800      	cmp	r0, #0
 80005da:	f040 8095 	bne.w	8000708 <tcp_http_mt+0x2fc>
 80005de:	4620      	mov	r0, r4
 80005e0:	f004 f89b 	bl	800471a <strcpy>
 80005e4:	4976      	ldr	r1, [pc, #472]	; (80007c0 <tcp_http_mt+0x3b4>)
 80005e6:	4620      	mov	r0, r4
 80005e8:	f004 f87b 	bl	80046e2 <strcat>
 80005ec:	4975      	ldr	r1, [pc, #468]	; (80007c4 <tcp_http_mt+0x3b8>)
 80005ee:	4620      	mov	r0, r4
 80005f0:	f004 f877 	bl	80046e2 <strcat>
 80005f4:	4974      	ldr	r1, [pc, #464]	; (80007c8 <tcp_http_mt+0x3bc>)
 80005f6:	4620      	mov	r0, r4
 80005f8:	f004 f873 	bl	80046e2 <strcat>
 80005fc:	4973      	ldr	r1, [pc, #460]	; (80007cc <tcp_http_mt+0x3c0>)
 80005fe:	4620      	mov	r0, r4
 8000600:	f004 f86f 	bl	80046e2 <strcat>
 8000604:	4972      	ldr	r1, [pc, #456]	; (80007d0 <tcp_http_mt+0x3c4>)
 8000606:	4620      	mov	r0, r4
 8000608:	f004 f86b 	bl	80046e2 <strcat>
 800060c:	4971      	ldr	r1, [pc, #452]	; (80007d4 <tcp_http_mt+0x3c8>)
 800060e:	4620      	mov	r0, r4
 8000610:	f004 f867 	bl	80046e2 <strcat>
 8000614:	4970      	ldr	r1, [pc, #448]	; (80007d8 <tcp_http_mt+0x3cc>)
 8000616:	4620      	mov	r0, r4
 8000618:	f004 f863 	bl	80046e2 <strcat>
 800061c:	496f      	ldr	r1, [pc, #444]	; (80007dc <tcp_http_mt+0x3d0>)
 800061e:	4620      	mov	r0, r4
 8000620:	f004 f85f 	bl	80046e2 <strcat>
 8000624:	496e      	ldr	r1, [pc, #440]	; (80007e0 <tcp_http_mt+0x3d4>)
 8000626:	4620      	mov	r0, r4
 8000628:	f004 f85b 	bl	80046e2 <strcat>
 800062c:	496d      	ldr	r1, [pc, #436]	; (80007e4 <tcp_http_mt+0x3d8>)
 800062e:	4620      	mov	r0, r4
 8000630:	f004 f857 	bl	80046e2 <strcat>
 8000634:	496c      	ldr	r1, [pc, #432]	; (80007e8 <tcp_http_mt+0x3dc>)
 8000636:	4620      	mov	r0, r4
 8000638:	f004 f853 	bl	80046e2 <strcat>
 800063c:	496b      	ldr	r1, [pc, #428]	; (80007ec <tcp_http_mt+0x3e0>)
 800063e:	4620      	mov	r0, r4
 8000640:	f004 f84f 	bl	80046e2 <strcat>
 8000644:	496a      	ldr	r1, [pc, #424]	; (80007f0 <tcp_http_mt+0x3e4>)
 8000646:	4620      	mov	r0, r4
 8000648:	f004 f84b 	bl	80046e2 <strcat>
 800064c:	4969      	ldr	r1, [pc, #420]	; (80007f4 <tcp_http_mt+0x3e8>)
 800064e:	4620      	mov	r0, r4
 8000650:	f004 f847 	bl	80046e2 <strcat>
 8000654:	4968      	ldr	r1, [pc, #416]	; (80007f8 <tcp_http_mt+0x3ec>)
 8000656:	4620      	mov	r0, r4
 8000658:	f004 f843 	bl	80046e2 <strcat>
 800065c:	4967      	ldr	r1, [pc, #412]	; (80007fc <tcp_http_mt+0x3f0>)
 800065e:	4620      	mov	r0, r4
 8000660:	f004 f83f 	bl	80046e2 <strcat>
 8000664:	4966      	ldr	r1, [pc, #408]	; (8000800 <tcp_http_mt+0x3f4>)
 8000666:	4620      	mov	r0, r4
 8000668:	f004 f83b 	bl	80046e2 <strcat>
 800066c:	4965      	ldr	r1, [pc, #404]	; (8000804 <tcp_http_mt+0x3f8>)
 800066e:	4620      	mov	r0, r4
 8000670:	f004 f837 	bl	80046e2 <strcat>
 8000674:	4964      	ldr	r1, [pc, #400]	; (8000808 <tcp_http_mt+0x3fc>)
 8000676:	4620      	mov	r0, r4
 8000678:	f004 f833 	bl	80046e2 <strcat>
 800067c:	4963      	ldr	r1, [pc, #396]	; (800080c <tcp_http_mt+0x400>)
 800067e:	4620      	mov	r0, r4
 8000680:	f004 f82f 	bl	80046e2 <strcat>
 8000684:	4962      	ldr	r1, [pc, #392]	; (8000810 <tcp_http_mt+0x404>)
 8000686:	4620      	mov	r0, r4
 8000688:	f004 f82b 	bl	80046e2 <strcat>
 800068c:	4961      	ldr	r1, [pc, #388]	; (8000814 <tcp_http_mt+0x408>)
 800068e:	4620      	mov	r0, r4
 8000690:	f004 f827 	bl	80046e2 <strcat>
 8000694:	4960      	ldr	r1, [pc, #384]	; (8000818 <tcp_http_mt+0x40c>)
 8000696:	4620      	mov	r0, r4
 8000698:	f004 f823 	bl	80046e2 <strcat>
 800069c:	495f      	ldr	r1, [pc, #380]	; (800081c <tcp_http_mt+0x410>)
 800069e:	4620      	mov	r0, r4
 80006a0:	f004 f81f 	bl	80046e2 <strcat>
 80006a4:	495e      	ldr	r1, [pc, #376]	; (8000820 <tcp_http_mt+0x414>)
 80006a6:	4620      	mov	r0, r4
 80006a8:	f004 f81b 	bl	80046e2 <strcat>
 80006ac:	495d      	ldr	r1, [pc, #372]	; (8000824 <tcp_http_mt+0x418>)
 80006ae:	4620      	mov	r0, r4
 80006b0:	f004 f817 	bl	80046e2 <strcat>
 80006b4:	495c      	ldr	r1, [pc, #368]	; (8000828 <tcp_http_mt+0x41c>)
 80006b6:	4620      	mov	r0, r4
 80006b8:	f004 f813 	bl	80046e2 <strcat>
 80006bc:	495b      	ldr	r1, [pc, #364]	; (800082c <tcp_http_mt+0x420>)
 80006be:	4620      	mov	r0, r4
 80006c0:	f004 f80f 	bl	80046e2 <strcat>
 80006c4:	495a      	ldr	r1, [pc, #360]	; (8000830 <tcp_http_mt+0x424>)
 80006c6:	4620      	mov	r0, r4
 80006c8:	f004 f80b 	bl	80046e2 <strcat>
 80006cc:	4959      	ldr	r1, [pc, #356]	; (8000834 <tcp_http_mt+0x428>)
 80006ce:	4620      	mov	r0, r4
 80006d0:	f004 f807 	bl	80046e2 <strcat>
 80006d4:	4958      	ldr	r1, [pc, #352]	; (8000838 <tcp_http_mt+0x42c>)
 80006d6:	4620      	mov	r0, r4
 80006d8:	f004 f803 	bl	80046e2 <strcat>
 80006dc:	4957      	ldr	r1, [pc, #348]	; (800083c <tcp_http_mt+0x430>)
 80006de:	4620      	mov	r0, r4
 80006e0:	f003 ffff 	bl	80046e2 <strcat>
 80006e4:	4956      	ldr	r1, [pc, #344]	; (8000840 <tcp_http_mt+0x434>)
 80006e6:	4620      	mov	r0, r4
 80006e8:	f003 fffb 	bl	80046e2 <strcat>
 80006ec:	4955      	ldr	r1, [pc, #340]	; (8000844 <tcp_http_mt+0x438>)
 80006ee:	4620      	mov	r0, r4
 80006f0:	f003 fff7 	bl	80046e2 <strcat>
 80006f4:	4954      	ldr	r1, [pc, #336]	; (8000848 <tcp_http_mt+0x43c>)
 80006f6:	4620      	mov	r0, r4
 80006f8:	f003 fff3 	bl	80046e2 <strcat>
 80006fc:	4953      	ldr	r1, [pc, #332]	; (800084c <tcp_http_mt+0x440>)
 80006fe:	4620      	mov	r0, r4
 8000700:	f003 ffef 	bl	80046e2 <strcat>
 8000704:	4952      	ldr	r1, [pc, #328]	; (8000850 <tcp_http_mt+0x444>)
 8000706:	e745      	b.n	8000594 <tcp_http_mt+0x188>
 8000708:	4620      	mov	r0, r4
 800070a:	f004 f806 	bl	800471a <strcpy>
 800070e:	4919      	ldr	r1, [pc, #100]	; (8000774 <tcp_http_mt+0x368>)
 8000710:	4620      	mov	r0, r4
 8000712:	f003 ffe6 	bl	80046e2 <strcat>
 8000716:	494f      	ldr	r1, [pc, #316]	; (8000854 <tcp_http_mt+0x448>)
 8000718:	4620      	mov	r0, r4
 800071a:	f003 ffe2 	bl	80046e2 <strcat>
 800071e:	4917      	ldr	r1, [pc, #92]	; (800077c <tcp_http_mt+0x370>)
 8000720:	4620      	mov	r0, r4
 8000722:	f003 ffde 	bl	80046e2 <strcat>
 8000726:	4916      	ldr	r1, [pc, #88]	; (8000780 <tcp_http_mt+0x374>)
 8000728:	4620      	mov	r0, r4
 800072a:	f003 ffda 	bl	80046e2 <strcat>
 800072e:	494a      	ldr	r1, [pc, #296]	; (8000858 <tcp_http_mt+0x44c>)
 8000730:	4620      	mov	r0, r4
 8000732:	f003 ffd6 	bl	80046e2 <strcat>
 8000736:	4949      	ldr	r1, [pc, #292]	; (800085c <tcp_http_mt+0x450>)
 8000738:	4620      	mov	r0, r4
 800073a:	f003 ffd2 	bl	80046e2 <strcat>
 800073e:	4948      	ldr	r1, [pc, #288]	; (8000860 <tcp_http_mt+0x454>)
 8000740:	4620      	mov	r0, r4
 8000742:	f003 ffce 	bl	80046e2 <strcat>
 8000746:	4947      	ldr	r1, [pc, #284]	; (8000864 <tcp_http_mt+0x458>)
 8000748:	4620      	mov	r0, r4
 800074a:	f003 ffca 	bl	80046e2 <strcat>
 800074e:	4946      	ldr	r1, [pc, #280]	; (8000868 <tcp_http_mt+0x45c>)
 8000750:	e720      	b.n	8000594 <tcp_http_mt+0x188>
 8000752:	bf00      	nop
 8000754:	20002c38 	.word	0x20002c38
 8000758:	20001c24 	.word	0x20001c24
 800075c:	080048c9 	.word	0x080048c9
 8000760:	080048ce 	.word	0x080048ce
 8000764:	080048db 	.word	0x080048db
 8000768:	20002c58 	.word	0x20002c58
 800076c:	080048e0 	.word	0x080048e0
 8000770:	080048e6 	.word	0x080048e6
 8000774:	08004913 	.word	0x08004913
 8000778:	08004920 	.word	0x08004920
 800077c:	0800493d 	.word	0x0800493d
 8000780:	08004945 	.word	0x08004945
 8000784:	0800494c 	.word	0x0800494c
 8000788:	08004986 	.word	0x08004986
 800078c:	0800499f 	.word	0x0800499f
 8000790:	080049f2 	.word	0x080049f2
 8000794:	08004a4b 	.word	0x08004a4b
 8000798:	08004a9e 	.word	0x08004a9e
 800079c:	08004ace 	.word	0x08004ace
 80007a0:	08004adf 	.word	0x08004adf
 80007a4:	08004afe 	.word	0x08004afe
 80007a8:	08004b8e 	.word	0x08004b8e
 80007ac:	08004c23 	.word	0x08004c23
 80007b0:	08004c69 	.word	0x08004c69
 80007b4:	08004cdf 	.word	0x08004cdf
 80007b8:	08004ce7 	.word	0x08004ce7
 80007bc:	08004cef 	.word	0x08004cef
 80007c0:	08004cfb 	.word	0x08004cfb
 80007c4:	08004d25 	.word	0x08004d25
 80007c8:	08004d44 	.word	0x08004d44
 80007cc:	08004d72 	.word	0x08004d72
 80007d0:	08004d9d 	.word	0x08004d9d
 80007d4:	08004dd4 	.word	0x08004dd4
 80007d8:	08004e0a 	.word	0x08004e0a
 80007dc:	08004e41 	.word	0x08004e41
 80007e0:	08004e77 	.word	0x08004e77
 80007e4:	08004eae 	.word	0x08004eae
 80007e8:	08004ee4 	.word	0x08004ee4
 80007ec:	08004f1b 	.word	0x08004f1b
 80007f0:	08004f51 	.word	0x08004f51
 80007f4:	08004f88 	.word	0x08004f88
 80007f8:	08004fbe 	.word	0x08004fbe
 80007fc:	08004ff5 	.word	0x08004ff5
 8000800:	0800502b 	.word	0x0800502b
 8000804:	08005062 	.word	0x08005062
 8000808:	08005098 	.word	0x08005098
 800080c:	080050cf 	.word	0x080050cf
 8000810:	08005105 	.word	0x08005105
 8000814:	0800513c 	.word	0x0800513c
 8000818:	08005172 	.word	0x08005172
 800081c:	080051aa 	.word	0x080051aa
 8000820:	080051e1 	.word	0x080051e1
 8000824:	08005219 	.word	0x08005219
 8000828:	08005250 	.word	0x08005250
 800082c:	08005288 	.word	0x08005288
 8000830:	080052bf 	.word	0x080052bf
 8000834:	080052f7 	.word	0x080052f7
 8000838:	0800532e 	.word	0x0800532e
 800083c:	08005366 	.word	0x08005366
 8000840:	0800539d 	.word	0x0800539d
 8000844:	080053d5 	.word	0x080053d5
 8000848:	0800540c 	.word	0x0800540c
 800084c:	08005444 	.word	0x08005444
 8000850:	0800547b 	.word	0x0800547b
 8000854:	08004d07 	.word	0x08004d07
 8000858:	080054dd 	.word	0x080054dd
 800085c:	080054f6 	.word	0x080054f6
 8000860:	08005525 	.word	0x08005525
 8000864:	08005565 	.word	0x08005565
 8000868:	080055ae 	.word	0x080055ae
 800086c:	2300      	movs	r3, #0
 800086e:	f84a 3025 	str.w	r3, [sl, r5, lsl #2]
 8000872:	f809 3005 	strb.w	r3, [r9, r5]
 8000876:	4628      	mov	r0, r5
 8000878:	f000 fbf2 	bl	8001060 <disconnect>
 800087c:	e5fe      	b.n	800047c <tcp_http_mt+0x70>
 800087e:	f848 0025 	str.w	r0, [r8, r5, lsl #2]
 8000882:	5578      	strb	r0, [r7, r5]
 8000884:	e7f7      	b.n	8000876 <tcp_http_mt+0x46a>
 8000886:	2300      	movs	r3, #0
 8000888:	4a0b      	ldr	r2, [pc, #44]	; (80008b8 <tcp_http_mt+0x4ac>)
 800088a:	4628      	mov	r0, r5
 800088c:	f842 3025 	str.w	r3, [r2, r5, lsl #2]
 8000890:	4a0a      	ldr	r2, [pc, #40]	; (80008bc <tcp_http_mt+0x4b0>)
 8000892:	5553      	strb	r3, [r2, r5]
 8000894:	f000 fbaa 	bl	8000fec <listen>
 8000898:	e5df      	b.n	800045a <tcp_http_mt+0x4e>
 800089a:	4a07      	ldr	r2, [pc, #28]	; (80008b8 <tcp_http_mt+0x4ac>)
 800089c:	2101      	movs	r1, #1
 800089e:	f842 0025 	str.w	r0, [r2, r5, lsl #2]
 80008a2:	4a06      	ldr	r2, [pc, #24]	; (80008bc <tcp_http_mt+0x4b0>)
 80008a4:	5550      	strb	r0, [r2, r5]
 80008a6:	463a      	mov	r2, r7
 80008a8:	4628      	mov	r0, r5
 80008aa:	f000 fb19 	bl	8000ee0 <socket>
 80008ae:	4285      	cmp	r5, r0
 80008b0:	4606      	mov	r6, r0
 80008b2:	f47f ae88 	bne.w	80005c6 <tcp_http_mt+0x1ba>
 80008b6:	e5e1      	b.n	800047c <tcp_http_mt+0x70>
 80008b8:	20002c38 	.word	0x20002c38
 80008bc:	20001c24 	.word	0x20001c24

080008c0 <StartEthernet>:
 80008c0:	b538      	push	{r3, r4, r5, lr}
 80008c2:	4d0b      	ldr	r5, [pc, #44]	; (80008f0 <StartEthernet+0x30>)
 80008c4:	2404      	movs	r4, #4
 80008c6:	4620      	mov	r0, r4
 80008c8:	3401      	adds	r4, #1
 80008ca:	2250      	movs	r2, #80	; 0x50
 80008cc:	4629      	mov	r1, r5
 80008ce:	b2e4      	uxtb	r4, r4
 80008d0:	f7ff fd9c 	bl	800040c <tcp_http_mt>
 80008d4:	2c08      	cmp	r4, #8
 80008d6:	d1f6      	bne.n	80008c6 <StartEthernet+0x6>
 80008d8:	2400      	movs	r4, #0
 80008da:	b2e0      	uxtb	r0, r4
 80008dc:	f44f 72fb 	mov.w	r2, #502	; 0x1f6
 80008e0:	4629      	mov	r1, r5
 80008e2:	3401      	adds	r4, #1
 80008e4:	f7ff fd92 	bl	800040c <tcp_http_mt>
 80008e8:	2c04      	cmp	r4, #4
 80008ea:	d1f6      	bne.n	80008da <StartEthernet+0x1a>
 80008ec:	e7ea      	b.n	80008c4 <StartEthernet+0x4>
 80008ee:	bf00      	nop
 80008f0:	20001c2c 	.word	0x20001c2c

080008f4 <read_flash>:
 80008f4:	2300      	movs	r3, #0
 80008f6:	b082      	sub	sp, #8
 80008f8:	9301      	str	r3, [sp, #4]
 80008fa:	9b01      	ldr	r3, [sp, #4]
 80008fc:	f103 6300 	add.w	r3, r3, #134217728	; 0x8000000
 8000900:	f503 4320 	add.w	r3, r3, #40960	; 0xa000
 8000904:	681b      	ldr	r3, [r3, #0]
 8000906:	9300      	str	r3, [sp, #0]
 8000908:	9b00      	ldr	r3, [sp, #0]
 800090a:	3301      	adds	r3, #1
 800090c:	d014      	beq.n	8000938 <read_flash+0x44>
 800090e:	9a00      	ldr	r2, [sp, #0]
 8000910:	9b01      	ldr	r3, [sp, #4]
 8000912:	54c2      	strb	r2, [r0, r3]
 8000914:	9a00      	ldr	r2, [sp, #0]
 8000916:	9b01      	ldr	r3, [sp, #4]
 8000918:	0a12      	lsrs	r2, r2, #8
 800091a:	4403      	add	r3, r0
 800091c:	705a      	strb	r2, [r3, #1]
 800091e:	9a00      	ldr	r2, [sp, #0]
 8000920:	9b01      	ldr	r3, [sp, #4]
 8000922:	0c12      	lsrs	r2, r2, #16
 8000924:	4403      	add	r3, r0
 8000926:	709a      	strb	r2, [r3, #2]
 8000928:	9a00      	ldr	r2, [sp, #0]
 800092a:	9b01      	ldr	r3, [sp, #4]
 800092c:	0e12      	lsrs	r2, r2, #24
 800092e:	4403      	add	r3, r0
 8000930:	70da      	strb	r2, [r3, #3]
 8000932:	9b01      	ldr	r3, [sp, #4]
 8000934:	3304      	adds	r3, #4
 8000936:	9301      	str	r3, [sp, #4]
 8000938:	9b00      	ldr	r3, [sp, #0]
 800093a:	3301      	adds	r3, #1
 800093c:	d1dd      	bne.n	80008fa <read_flash+0x6>
 800093e:	b002      	add	sp, #8
 8000940:	4770      	bx	lr

08000942 <strremove>:
 8000942:	e92d 47f0 	stmdb	sp!, {r4, r5, r6, r7, r8, r9, sl, lr}
 8000946:	4681      	mov	r9, r0
 8000948:	460f      	mov	r7, r1
 800094a:	f003 ff00 	bl	800474e <strstr>
 800094e:	4604      	mov	r4, r0
 8000950:	b1a0      	cbz	r0, 800097c <strremove+0x3a>
 8000952:	4638      	mov	r0, r7
 8000954:	f7ff fbfc 	bl	8000150 <strlen>
 8000958:	4626      	mov	r6, r4
 800095a:	4682      	mov	sl, r0
 800095c:	eb04 050a 	add.w	r5, r4, sl
 8000960:	4639      	mov	r1, r7
 8000962:	4628      	mov	r0, r5
 8000964:	f003 fef3 	bl	800474e <strstr>
 8000968:	4604      	mov	r4, r0
 800096a:	b950      	cbnz	r0, 8000982 <strremove+0x40>
 800096c:	4628      	mov	r0, r5
 800096e:	f7ff fbef 	bl	8000150 <strlen>
 8000972:	4629      	mov	r1, r5
 8000974:	1c42      	adds	r2, r0, #1
 8000976:	4630      	mov	r0, r6
 8000978:	f003 fe92 	bl	80046a0 <memmove>
 800097c:	4648      	mov	r0, r9
 800097e:	e8bd 87f0 	ldmia.w	sp!, {r4, r5, r6, r7, r8, r9, sl, pc}
 8000982:	eba4 0805 	sub.w	r8, r4, r5
 8000986:	4630      	mov	r0, r6
 8000988:	4642      	mov	r2, r8
 800098a:	4629      	mov	r1, r5
 800098c:	f003 fe88 	bl	80046a0 <memmove>
 8000990:	4446      	add	r6, r8
 8000992:	e7e3      	b.n	800095c <strremove+0x1a>

08000994 <main>:
 8000994:	b5f0      	push	{r4, r5, r6, r7, lr}
 8000996:	b097      	sub	sp, #92	; 0x5c
 8000998:	aa05      	add	r2, sp, #20
 800099a:	4616      	mov	r6, r2
 800099c:	4b88      	ldr	r3, [pc, #544]	; (8000bc0 <main+0x22c>)
 800099e:	f103 0510 	add.w	r5, r3, #16
 80009a2:	4614      	mov	r4, r2
 80009a4:	6818      	ldr	r0, [r3, #0]
 80009a6:	6859      	ldr	r1, [r3, #4]
 80009a8:	3308      	adds	r3, #8
 80009aa:	c403      	stmia	r4!, {r0, r1}
 80009ac:	42ab      	cmp	r3, r5
 80009ae:	4622      	mov	r2, r4
 80009b0:	d1f7      	bne.n	80009a2 <main+0xe>
 80009b2:	4c84      	ldr	r4, [pc, #528]	; (8000bc4 <main+0x230>)
 80009b4:	4620      	mov	r0, r4
 80009b6:	f7ff ff9d 	bl	80008f4 <read_flash>
 80009ba:	7863      	ldrb	r3, [r4, #1]
 80009bc:	2b69      	cmp	r3, #105	; 0x69
 80009be:	d10e      	bne.n	80009de <main+0x4a>
 80009c0:	78a3      	ldrb	r3, [r4, #2]
 80009c2:	2b70      	cmp	r3, #112	; 0x70
 80009c4:	d10b      	bne.n	80009de <main+0x4a>
 80009c6:	4980      	ldr	r1, [pc, #512]	; (8000bc8 <main+0x234>)
 80009c8:	f7ff ffbb 	bl	8000942 <strremove>
 80009cc:	22c0      	movs	r2, #192	; 0xc0
 80009ce:	4b7f      	ldr	r3, [pc, #508]	; (8000bcc <main+0x238>)
 80009d0:	719a      	strb	r2, [r3, #6]
 80009d2:	22a8      	movs	r2, #168	; 0xa8
 80009d4:	71da      	strb	r2, [r3, #7]
 80009d6:	2200      	movs	r2, #0
 80009d8:	721a      	strb	r2, [r3, #8]
 80009da:	2221      	movs	r2, #33	; 0x21
 80009dc:	725a      	strb	r2, [r3, #9]
 80009de:	f001 f869 	bl	8001ab4 <HAL_Init>
 80009e2:	f7ff fc53 	bl	800028c <SystemClock_Config>
 80009e6:	2210      	movs	r2, #16
 80009e8:	2100      	movs	r1, #0
 80009ea:	a809      	add	r0, sp, #36	; 0x24
 80009ec:	f003 fe71 	bl	80046d2 <memset>
 80009f0:	4b77      	ldr	r3, [pc, #476]	; (8000bd0 <main+0x23c>)
 80009f2:	f44f 41c0 	mov.w	r1, #24576	; 0x6000
 80009f6:	699a      	ldr	r2, [r3, #24]
 80009f8:	4876      	ldr	r0, [pc, #472]	; (8000bd4 <main+0x240>)
 80009fa:	f042 0210 	orr.w	r2, r2, #16
 80009fe:	619a      	str	r2, [r3, #24]
 8000a00:	699a      	ldr	r2, [r3, #24]
 8000a02:	2400      	movs	r4, #0
 8000a04:	f002 0210 	and.w	r2, r2, #16
 8000a08:	9201      	str	r2, [sp, #4]
 8000a0a:	9a01      	ldr	r2, [sp, #4]
 8000a0c:	699a      	ldr	r2, [r3, #24]
 8000a0e:	2501      	movs	r5, #1
 8000a10:	f042 0220 	orr.w	r2, r2, #32
 8000a14:	619a      	str	r2, [r3, #24]
 8000a16:	699a      	ldr	r2, [r3, #24]
 8000a18:	2702      	movs	r7, #2
 8000a1a:	f002 0220 	and.w	r2, r2, #32
 8000a1e:	9202      	str	r2, [sp, #8]
 8000a20:	9a02      	ldr	r2, [sp, #8]
 8000a22:	699a      	ldr	r2, [r3, #24]
 8000a24:	f042 0204 	orr.w	r2, r2, #4
 8000a28:	619a      	str	r2, [r3, #24]
 8000a2a:	699a      	ldr	r2, [r3, #24]
 8000a2c:	f002 0204 	and.w	r2, r2, #4
 8000a30:	9203      	str	r2, [sp, #12]
 8000a32:	9a03      	ldr	r2, [sp, #12]
 8000a34:	699a      	ldr	r2, [r3, #24]
 8000a36:	f042 0208 	orr.w	r2, r2, #8
 8000a3a:	619a      	str	r2, [r3, #24]
 8000a3c:	699b      	ldr	r3, [r3, #24]
 8000a3e:	2200      	movs	r2, #0
 8000a40:	f003 0308 	and.w	r3, r3, #8
 8000a44:	9304      	str	r3, [sp, #16]
 8000a46:	9b04      	ldr	r3, [sp, #16]
 8000a48:	f001 fadc 	bl	8002004 <HAL_GPIO_WritePin>
 8000a4c:	2200      	movs	r2, #0
 8000a4e:	2102      	movs	r1, #2
 8000a50:	4861      	ldr	r0, [pc, #388]	; (8000bd8 <main+0x244>)
 8000a52:	f001 fad7 	bl	8002004 <HAL_GPIO_WritePin>
 8000a56:	2200      	movs	r2, #0
 8000a58:	f241 0101 	movw	r1, #4097	; 0x1001
 8000a5c:	485f      	ldr	r0, [pc, #380]	; (8000bdc <main+0x248>)
 8000a5e:	f001 fad1 	bl	8002004 <HAL_GPIO_WritePin>
 8000a62:	2201      	movs	r2, #1
 8000a64:	f44f 7180 	mov.w	r1, #256	; 0x100
 8000a68:	485d      	ldr	r0, [pc, #372]	; (8000be0 <main+0x24c>)
 8000a6a:	f001 facb 	bl	8002004 <HAL_GPIO_WritePin>
 8000a6e:	f44f 43c0 	mov.w	r3, #24576	; 0x6000
 8000a72:	a909      	add	r1, sp, #36	; 0x24
 8000a74:	4857      	ldr	r0, [pc, #348]	; (8000bd4 <main+0x240>)
 8000a76:	e9cd 3509 	strd	r3, r5, [sp, #36]	; 0x24
 8000a7a:	e9cd 470b 	strd	r4, r7, [sp, #44]	; 0x2c
 8000a7e:	f001 f9db 	bl	8001e38 <HAL_GPIO_Init>
 8000a82:	a909      	add	r1, sp, #36	; 0x24
 8000a84:	4854      	ldr	r0, [pc, #336]	; (8000bd8 <main+0x244>)
 8000a86:	e9cd 7509 	strd	r7, r5, [sp, #36]	; 0x24
 8000a8a:	e9cd 470b 	strd	r4, r7, [sp, #44]	; 0x2c
 8000a8e:	f001 f9d3 	bl	8001e38 <HAL_GPIO_Init>
 8000a92:	23ff      	movs	r3, #255	; 0xff
 8000a94:	a909      	add	r1, sp, #36	; 0x24
 8000a96:	4852      	ldr	r0, [pc, #328]	; (8000be0 <main+0x24c>)
 8000a98:	e9cd 3409 	strd	r3, r4, [sp, #36]	; 0x24
 8000a9c:	940b      	str	r4, [sp, #44]	; 0x2c
 8000a9e:	f001 f9cb 	bl	8001e38 <HAL_GPIO_Init>
 8000aa2:	f241 0301 	movw	r3, #4097	; 0x1001
 8000aa6:	a909      	add	r1, sp, #36	; 0x24
 8000aa8:	484c      	ldr	r0, [pc, #304]	; (8000bdc <main+0x248>)
 8000aaa:	e9cd 3509 	strd	r3, r5, [sp, #36]	; 0x24
 8000aae:	e9cd 470b 	strd	r4, r7, [sp, #44]	; 0x2c
 8000ab2:	f001 f9c1 	bl	8001e38 <HAL_GPIO_Init>
 8000ab6:	237e      	movs	r3, #126	; 0x7e
 8000ab8:	a909      	add	r1, sp, #36	; 0x24
 8000aba:	4848      	ldr	r0, [pc, #288]	; (8000bdc <main+0x248>)
 8000abc:	e9cd 3409 	strd	r3, r4, [sp, #36]	; 0x24
 8000ac0:	940b      	str	r4, [sp, #44]	; 0x2c
 8000ac2:	f001 f9b9 	bl	8001e38 <HAL_GPIO_Init>
 8000ac6:	f44f 7380 	mov.w	r3, #256	; 0x100
 8000aca:	a909      	add	r1, sp, #36	; 0x24
 8000acc:	4844      	ldr	r0, [pc, #272]	; (8000be0 <main+0x24c>)
 8000ace:	e9cd 3509 	strd	r3, r5, [sp, #36]	; 0x24
 8000ad2:	e9cd 570b 	strd	r5, r7, [sp, #44]	; 0x2c
 8000ad6:	f001 f9af 	bl	8001e38 <HAL_GPIO_Init>
 8000ada:	4a42      	ldr	r2, [pc, #264]	; (8000be4 <main+0x250>)
 8000adc:	4842      	ldr	r0, [pc, #264]	; (8000be8 <main+0x254>)
 8000ade:	6853      	ldr	r3, [r2, #4]
 8000ae0:	f44f 7100 	mov.w	r1, #512	; 0x200
 8000ae4:	f043 63e0 	orr.w	r3, r3, #117440512	; 0x7000000
 8000ae8:	f443 4300 	orr.w	r3, r3, #32768	; 0x8000
 8000aec:	6053      	str	r3, [r2, #4]
 8000aee:	f44f 7382 	mov.w	r3, #260	; 0x104
 8000af2:	4a3e      	ldr	r2, [pc, #248]	; (8000bec <main+0x258>)
 8000af4:	e9c0 4402 	strd	r4, r4, [r0, #8]
 8000af8:	e9c0 2300 	strd	r2, r3, [r0]
 8000afc:	2318      	movs	r3, #24
 8000afe:	e9c0 1306 	strd	r1, r3, [r0, #24]
 8000b02:	230a      	movs	r3, #10
 8000b04:	e9c0 4404 	strd	r4, r4, [r0, #16]
 8000b08:	62c3      	str	r3, [r0, #44]	; 0x2c
 8000b0a:	e9c0 4408 	strd	r4, r4, [r0, #32]
 8000b0e:	6284      	str	r4, [r0, #40]	; 0x28
 8000b10:	4f37      	ldr	r7, [pc, #220]	; (8000bf0 <main+0x25c>)
 8000b12:	f001 fe3f 	bl	8002794 <HAL_SPI_Init>
 8000b16:	4837      	ldr	r0, [pc, #220]	; (8000bf4 <main+0x260>)
 8000b18:	4b37      	ldr	r3, [pc, #220]	; (8000bf8 <main+0x264>)
 8000b1a:	e9c0 4402 	strd	r4, r4, [r0, #8]
 8000b1e:	e9c0 7300 	strd	r7, r3, [r0]
 8000b22:	f44f 4380 	mov.w	r3, #16384	; 0x4000
 8000b26:	e9c0 4406 	strd	r4, r4, [r0, #24]
 8000b2a:	e9c0 3404 	strd	r3, r4, [r0, #16]
 8000b2e:	6204      	str	r4, [r0, #32]
 8000b30:	f001 fa6e 	bl	8002010 <HAL_I2C_Init>
 8000b34:	4931      	ldr	r1, [pc, #196]	; (8000bfc <main+0x268>)
 8000b36:	4832      	ldr	r0, [pc, #200]	; (8000c00 <main+0x26c>)
 8000b38:	f000 fd04 	bl	8001544 <reg_wizchip_cs_cbfunc>
 8000b3c:	4931      	ldr	r1, [pc, #196]	; (8000c04 <main+0x270>)
 8000b3e:	4832      	ldr	r0, [pc, #200]	; (8000c08 <main+0x274>)
 8000b40:	f000 fd12 	bl	8001568 <reg_wizchip_spi_cbfunc>
 8000b44:	4631      	mov	r1, r6
 8000b46:	4628      	mov	r0, r5
 8000b48:	f000 fe86 	bl	8001858 <ctlwizchip>
 8000b4c:	3001      	adds	r0, #1
 8000b4e:	d100      	bne.n	8000b52 <main+0x1be>
 8000b50:	e7fe      	b.n	8000b50 <main+0x1bc>
 8000b52:	f7ff fbdd 	bl	8000310 <network_init>
 8000b56:	4623      	mov	r3, r4
 8000b58:	492c      	ldr	r1, [pc, #176]	; (8000c0c <main+0x278>)
 8000b5a:	4a2d      	ldr	r2, [pc, #180]	; (8000c10 <main+0x27c>)
 8000b5c:	f841 3024 	str.w	r3, [r1, r4, lsl #2]
 8000b60:	54a3      	strb	r3, [r4, r2]
 8000b62:	3401      	adds	r4, #1
 8000b64:	2c08      	cmp	r4, #8
 8000b66:	d1f9      	bne.n	8000b5c <main+0x1c8>
 8000b68:	492a      	ldr	r1, [pc, #168]	; (8000c14 <main+0x280>)
 8000b6a:	a809      	add	r0, sp, #36	; 0x24
 8000b6c:	f003 fdd5 	bl	800471a <strcpy>
 8000b70:	f002 f890 	bl	8002c94 <osKernelInitialize>
 8000b74:	4a28      	ldr	r2, [pc, #160]	; (8000c18 <main+0x284>)
 8000b76:	2100      	movs	r1, #0
 8000b78:	4828      	ldr	r0, [pc, #160]	; (8000c1c <main+0x288>)
 8000b7a:	f002 f8c7 	bl	8002d0c <osThreadNew>
 8000b7e:	4b28      	ldr	r3, [pc, #160]	; (8000c20 <main+0x28c>)
 8000b80:	4a28      	ldr	r2, [pc, #160]	; (8000c24 <main+0x290>)
 8000b82:	6018      	str	r0, [r3, #0]
 8000b84:	2100      	movs	r1, #0
 8000b86:	4828      	ldr	r0, [pc, #160]	; (8000c28 <main+0x294>)
 8000b88:	f002 f8c0 	bl	8002d0c <osThreadNew>
 8000b8c:	4b27      	ldr	r3, [pc, #156]	; (8000c2c <main+0x298>)
 8000b8e:	4a28      	ldr	r2, [pc, #160]	; (8000c30 <main+0x29c>)
 8000b90:	6018      	str	r0, [r3, #0]
 8000b92:	2100      	movs	r1, #0
 8000b94:	4827      	ldr	r0, [pc, #156]	; (8000c34 <main+0x2a0>)
 8000b96:	f002 f8b9 	bl	8002d0c <osThreadNew>
 8000b9a:	4b27      	ldr	r3, [pc, #156]	; (8000c38 <main+0x2a4>)
 8000b9c:	4a27      	ldr	r2, [pc, #156]	; (8000c3c <main+0x2a8>)
 8000b9e:	6018      	str	r0, [r3, #0]
 8000ba0:	2100      	movs	r1, #0
 8000ba2:	4827      	ldr	r0, [pc, #156]	; (8000c40 <main+0x2ac>)
 8000ba4:	f002 f8b2 	bl	8002d0c <osThreadNew>
 8000ba8:	4b26      	ldr	r3, [pc, #152]	; (8000c44 <main+0x2b0>)
 8000baa:	4a27      	ldr	r2, [pc, #156]	; (8000c48 <main+0x2b4>)
 8000bac:	6018      	str	r0, [r3, #0]
 8000bae:	2100      	movs	r1, #0
 8000bb0:	4826      	ldr	r0, [pc, #152]	; (8000c4c <main+0x2b8>)
 8000bb2:	f002 f8ab 	bl	8002d0c <osThreadNew>
 8000bb6:	4b26      	ldr	r3, [pc, #152]	; (8000c50 <main+0x2bc>)
 8000bb8:	6018      	str	r0, [r3, #0]
 8000bba:	f002 f887 	bl	8002ccc <osKernelStart>
 8000bbe:	e7fe      	b.n	8000bbe <main+0x22a>
 8000bc0:	0800479c 	.word	0x0800479c
 8000bc4:	20002c58 	.word	0x20002c58
 8000bc8:	080048db 	.word	0x080048db
 8000bcc:	20000000 	.word	0x20000000
 8000bd0:	40021000 	.word	0x40021000
 8000bd4:	40011000 	.word	0x40011000
 8000bd8:	40011400 	.word	0x40011400
 8000bdc:	40010c00 	.word	0x40010c00
 8000be0:	40010800 	.word	0x40010800
 8000be4:	40010000 	.word	0x40010000
 8000be8:	20001b50 	.word	0x20001b50
 8000bec:	40003800 	.word	0x40003800
 8000bf0:	40005800 	.word	0x40005800
 8000bf4:	20001ba8 	.word	0x20001ba8
 8000bf8:	000186a0 	.word	0x000186a0
 8000bfc:	08000171 	.word	0x08000171
 8000c00:	08000161 	.word	0x08000161
 8000c04:	08000305 	.word	0x08000305
 8000c08:	08000309 	.word	0x08000309
 8000c0c:	20002c38 	.word	0x20002c38
 8000c10:	20001c24 	.word	0x20001c24
 8000c14:	080047e0 	.word	0x080047e0
 8000c18:	080047bc 	.word	0x080047bc
 8000c1c:	080008c1 	.word	0x080008c1
 8000c20:	20002c34 	.word	0x20002c34
 8000c24:	080047f0 	.word	0x080047f0
 8000c28:	08000181 	.word	0x08000181
 8000c2c:	20001c20 	.word	0x20001c20
 8000c30:	08004814 	.word	0x08004814
 8000c34:	080001c1 	.word	0x080001c1
 8000c38:	20002c30 	.word	0x20002c30
 8000c3c:	08004838 	.word	0x08004838
 8000c40:	08000201 	.word	0x08000201
 8000c44:	20002c2c 	.word	0x20002c2c
 8000c48:	0800485c 	.word	0x0800485c
 8000c4c:	0800024d 	.word	0x0800024d
 8000c50:	20001bfc 	.word	0x20001bfc

08000c54 <HAL_TIM_PeriodElapsedCallback>:
 8000c54:	6802      	ldr	r2, [r0, #0]
 8000c56:	4b03      	ldr	r3, [pc, #12]	; (8000c64 <HAL_TIM_PeriodElapsedCallback+0x10>)
 8000c58:	429a      	cmp	r2, r3
 8000c5a:	d101      	bne.n	8000c60 <HAL_TIM_PeriodElapsedCallback+0xc>
 8000c5c:	f000 bf3c 	b.w	8001ad8 <HAL_IncTick>
 8000c60:	4770      	bx	lr
 8000c62:	bf00      	nop
 8000c64:	40012c00 	.word	0x40012c00

08000c68 <HAL_MspInit>:
 8000c68:	4b11      	ldr	r3, [pc, #68]	; (8000cb0 <HAL_MspInit+0x48>)
 8000c6a:	b507      	push	{r0, r1, r2, lr}
 8000c6c:	699a      	ldr	r2, [r3, #24]
 8000c6e:	210f      	movs	r1, #15
 8000c70:	f042 0201 	orr.w	r2, r2, #1
 8000c74:	619a      	str	r2, [r3, #24]
 8000c76:	699a      	ldr	r2, [r3, #24]
 8000c78:	f06f 0001 	mvn.w	r0, #1
 8000c7c:	f002 0201 	and.w	r2, r2, #1
 8000c80:	9200      	str	r2, [sp, #0]
 8000c82:	9a00      	ldr	r2, [sp, #0]
 8000c84:	69da      	ldr	r2, [r3, #28]
 8000c86:	f042 5280 	orr.w	r2, r2, #268435456	; 0x10000000
 8000c8a:	61da      	str	r2, [r3, #28]
 8000c8c:	69db      	ldr	r3, [r3, #28]
 8000c8e:	2200      	movs	r2, #0
 8000c90:	f003 5380 	and.w	r3, r3, #268435456	; 0x10000000
 8000c94:	9301      	str	r3, [sp, #4]
 8000c96:	9b01      	ldr	r3, [sp, #4]
 8000c98:	f000 ff42 	bl	8001b20 <HAL_NVIC_SetPriority>
 8000c9c:	4a05      	ldr	r2, [pc, #20]	; (8000cb4 <HAL_MspInit+0x4c>)
 8000c9e:	6853      	ldr	r3, [r2, #4]
 8000ca0:	f023 63e0 	bic.w	r3, r3, #117440512	; 0x7000000
 8000ca4:	f043 7300 	orr.w	r3, r3, #33554432	; 0x2000000
 8000ca8:	6053      	str	r3, [r2, #4]
 8000caa:	b003      	add	sp, #12
 8000cac:	f85d fb04 	ldr.w	pc, [sp], #4
 8000cb0:	40021000 	.word	0x40021000
 8000cb4:	40010000 	.word	0x40010000

08000cb8 <HAL_I2C_MspInit>:
 8000cb8:	b510      	push	{r4, lr}
 8000cba:	4604      	mov	r4, r0
 8000cbc:	b086      	sub	sp, #24
 8000cbe:	2210      	movs	r2, #16
 8000cc0:	2100      	movs	r1, #0
 8000cc2:	a802      	add	r0, sp, #8
 8000cc4:	f003 fd05 	bl	80046d2 <memset>
 8000cc8:	6822      	ldr	r2, [r4, #0]
 8000cca:	4b11      	ldr	r3, [pc, #68]	; (8000d10 <HAL_I2C_MspInit+0x58>)
 8000ccc:	429a      	cmp	r2, r3
 8000cce:	d11d      	bne.n	8000d0c <HAL_I2C_MspInit+0x54>
 8000cd0:	4c10      	ldr	r4, [pc, #64]	; (8000d14 <HAL_I2C_MspInit+0x5c>)
 8000cd2:	f44f 6240 	mov.w	r2, #3072	; 0xc00
 8000cd6:	69a3      	ldr	r3, [r4, #24]
 8000cd8:	a902      	add	r1, sp, #8
 8000cda:	f043 0308 	orr.w	r3, r3, #8
 8000cde:	61a3      	str	r3, [r4, #24]
 8000ce0:	69a3      	ldr	r3, [r4, #24]
 8000ce2:	480d      	ldr	r0, [pc, #52]	; (8000d18 <HAL_I2C_MspInit+0x60>)
 8000ce4:	f003 0308 	and.w	r3, r3, #8
 8000ce8:	9300      	str	r3, [sp, #0]
 8000cea:	9b00      	ldr	r3, [sp, #0]
 8000cec:	2312      	movs	r3, #18
 8000cee:	e9cd 2302 	strd	r2, r3, [sp, #8]
 8000cf2:	2303      	movs	r3, #3
 8000cf4:	9305      	str	r3, [sp, #20]
 8000cf6:	f001 f89f 	bl	8001e38 <HAL_GPIO_Init>
 8000cfa:	69e3      	ldr	r3, [r4, #28]
 8000cfc:	f443 0380 	orr.w	r3, r3, #4194304	; 0x400000
 8000d00:	61e3      	str	r3, [r4, #28]
 8000d02:	69e3      	ldr	r3, [r4, #28]
 8000d04:	f403 0380 	and.w	r3, r3, #4194304	; 0x400000
 8000d08:	9301      	str	r3, [sp, #4]
 8000d0a:	9b01      	ldr	r3, [sp, #4]
 8000d0c:	b006      	add	sp, #24
 8000d0e:	bd10      	pop	{r4, pc}
 8000d10:	40005800 	.word	0x40005800
 8000d14:	40021000 	.word	0x40021000
 8000d18:	40010c00 	.word	0x40010c00

08000d1c <HAL_SPI_MspInit>:
 8000d1c:	b510      	push	{r4, lr}
 8000d1e:	4604      	mov	r4, r0
 8000d20:	b086      	sub	sp, #24
 8000d22:	2210      	movs	r2, #16
 8000d24:	2100      	movs	r1, #0
 8000d26:	a802      	add	r0, sp, #8
 8000d28:	f003 fcd3 	bl	80046d2 <memset>
 8000d2c:	6822      	ldr	r2, [r4, #0]
 8000d2e:	4b17      	ldr	r3, [pc, #92]	; (8000d8c <HAL_SPI_MspInit+0x70>)
 8000d30:	429a      	cmp	r2, r3
 8000d32:	d128      	bne.n	8000d86 <HAL_SPI_MspInit+0x6a>
 8000d34:	f503 33ec 	add.w	r3, r3, #120832	; 0x1d800
 8000d38:	69da      	ldr	r2, [r3, #28]
 8000d3a:	a902      	add	r1, sp, #8
 8000d3c:	f442 4280 	orr.w	r2, r2, #16384	; 0x4000
 8000d40:	61da      	str	r2, [r3, #28]
 8000d42:	69da      	ldr	r2, [r3, #28]
 8000d44:	4812      	ldr	r0, [pc, #72]	; (8000d90 <HAL_SPI_MspInit+0x74>)
 8000d46:	f402 4280 	and.w	r2, r2, #16384	; 0x4000
 8000d4a:	9200      	str	r2, [sp, #0]
 8000d4c:	9a00      	ldr	r2, [sp, #0]
 8000d4e:	699a      	ldr	r2, [r3, #24]
 8000d50:	f042 0208 	orr.w	r2, r2, #8
 8000d54:	619a      	str	r2, [r3, #24]
 8000d56:	699b      	ldr	r3, [r3, #24]
 8000d58:	f44f 4220 	mov.w	r2, #40960	; 0xa000
 8000d5c:	f003 0308 	and.w	r3, r3, #8
 8000d60:	9301      	str	r3, [sp, #4]
 8000d62:	9b01      	ldr	r3, [sp, #4]
 8000d64:	2302      	movs	r3, #2
 8000d66:	e9cd 2302 	strd	r2, r3, [sp, #8]
 8000d6a:	2303      	movs	r3, #3
 8000d6c:	9305      	str	r3, [sp, #20]
 8000d6e:	f001 f863 	bl	8001e38 <HAL_GPIO_Init>
 8000d72:	f44f 4180 	mov.w	r1, #16384	; 0x4000
 8000d76:	2300      	movs	r3, #0
 8000d78:	4805      	ldr	r0, [pc, #20]	; (8000d90 <HAL_SPI_MspInit+0x74>)
 8000d7a:	e9cd 1302 	strd	r1, r3, [sp, #8]
 8000d7e:	a902      	add	r1, sp, #8
 8000d80:	9304      	str	r3, [sp, #16]
 8000d82:	f001 f859 	bl	8001e38 <HAL_GPIO_Init>
 8000d86:	b006      	add	sp, #24
 8000d88:	bd10      	pop	{r4, pc}
 8000d8a:	bf00      	nop
 8000d8c:	40003800 	.word	0x40003800
 8000d90:	40010c00 	.word	0x40010c00

08000d94 <HAL_InitTick>:
 8000d94:	b510      	push	{r4, lr}
 8000d96:	4601      	mov	r1, r0
 8000d98:	b088      	sub	sp, #32
 8000d9a:	2200      	movs	r2, #0
 8000d9c:	2019      	movs	r0, #25
 8000d9e:	f000 febf 	bl	8001b20 <HAL_NVIC_SetPriority>
 8000da2:	2019      	movs	r0, #25
 8000da4:	f000 fef0 	bl	8001b88 <HAL_NVIC_EnableIRQ>
 8000da8:	4b14      	ldr	r3, [pc, #80]	; (8000dfc <HAL_InitTick+0x68>)
 8000daa:	a901      	add	r1, sp, #4
 8000dac:	699a      	ldr	r2, [r3, #24]
 8000dae:	a803      	add	r0, sp, #12
 8000db0:	f442 6200 	orr.w	r2, r2, #2048	; 0x800
 8000db4:	619a      	str	r2, [r3, #24]
 8000db6:	699b      	ldr	r3, [r3, #24]
 8000db8:	4c11      	ldr	r4, [pc, #68]	; (8000e00 <HAL_InitTick+0x6c>)
 8000dba:	f403 6300 	and.w	r3, r3, #2048	; 0x800
 8000dbe:	9302      	str	r3, [sp, #8]
 8000dc0:	9b02      	ldr	r3, [sp, #8]
 8000dc2:	f001 fc65 	bl	8002690 <HAL_RCC_GetClockConfig>
 8000dc6:	f001 fc53 	bl	8002670 <HAL_RCC_GetPCLK2Freq>
 8000dca:	4b0e      	ldr	r3, [pc, #56]	; (8000e04 <HAL_InitTick+0x70>)
 8000dcc:	6023      	str	r3, [r4, #0]
 8000dce:	f240 33e7 	movw	r3, #999	; 0x3e7
 8000dd2:	60e3      	str	r3, [r4, #12]
 8000dd4:	4b0c      	ldr	r3, [pc, #48]	; (8000e08 <HAL_InitTick+0x74>)
 8000dd6:	fbb0 f0f3 	udiv	r0, r0, r3
 8000dda:	2300      	movs	r3, #0
 8000ddc:	3801      	subs	r0, #1
 8000dde:	6060      	str	r0, [r4, #4]
 8000de0:	4620      	mov	r0, r4
 8000de2:	6123      	str	r3, [r4, #16]
 8000de4:	60a3      	str	r3, [r4, #8]
 8000de6:	f001 ff27 	bl	8002c38 <HAL_TIM_Base_Init>
 8000dea:	b920      	cbnz	r0, 8000df6 <HAL_InitTick+0x62>
 8000dec:	4620      	mov	r0, r4
 8000dee:	f001 fe1b 	bl	8002a28 <HAL_TIM_Base_Start_IT>
 8000df2:	b008      	add	sp, #32
 8000df4:	bd10      	pop	{r4, pc}
 8000df6:	2001      	movs	r0, #1
 8000df8:	e7fb      	b.n	8000df2 <HAL_InitTick+0x5e>
 8000dfa:	bf00      	nop
 8000dfc:	40021000 	.word	0x40021000
 8000e00:	20002d84 	.word	0x20002d84
 8000e04:	40012c00 	.word	0x40012c00
 8000e08:	000f4240 	.word	0x000f4240

08000e0c <NMI_Handler>:
 8000e0c:	4770      	bx	lr

08000e0e <HardFault_Handler>:
 8000e0e:	e7fe      	b.n	8000e0e <HardFault_Handler>

08000e10 <MemManage_Handler>:
 8000e10:	e7fe      	b.n	8000e10 <MemManage_Handler>

08000e12 <BusFault_Handler>:
 8000e12:	e7fe      	b.n	8000e12 <BusFault_Handler>

08000e14 <UsageFault_Handler>:
 8000e14:	e7fe      	b.n	8000e14 <UsageFault_Handler>

08000e16 <DebugMon_Handler>:
 8000e16:	4770      	bx	lr

08000e18 <TIM1_UP_IRQHandler>:
 8000e18:	4801      	ldr	r0, [pc, #4]	; (8000e20 <TIM1_UP_IRQHandler+0x8>)
 8000e1a:	f001 be33 	b.w	8002a84 <HAL_TIM_IRQHandler>
 8000e1e:	bf00      	nop
 8000e20:	20002d84 	.word	0x20002d84

08000e24 <SystemInit>:
 8000e24:	4770      	bx	lr
	...

08000e28 <Reset_Handler>:
 8000e28:	2100      	movs	r1, #0
 8000e2a:	e003      	b.n	8000e34 <LoopCopyDataInit>

08000e2c <CopyDataInit>:
 8000e2c:	4b0b      	ldr	r3, [pc, #44]	; (8000e5c <LoopFillZerobss+0x14>)
 8000e2e:	585b      	ldr	r3, [r3, r1]
 8000e30:	5043      	str	r3, [r0, r1]
 8000e32:	3104      	adds	r1, #4

08000e34 <LoopCopyDataInit>:
 8000e34:	480a      	ldr	r0, [pc, #40]	; (8000e60 <LoopFillZerobss+0x18>)
 8000e36:	4b0b      	ldr	r3, [pc, #44]	; (8000e64 <LoopFillZerobss+0x1c>)
 8000e38:	1842      	adds	r2, r0, r1
 8000e3a:	429a      	cmp	r2, r3
 8000e3c:	d3f6      	bcc.n	8000e2c <CopyDataInit>
 8000e3e:	4a0a      	ldr	r2, [pc, #40]	; (8000e68 <LoopFillZerobss+0x20>)
 8000e40:	e002      	b.n	8000e48 <LoopFillZerobss>

08000e42 <FillZerobss>:
 8000e42:	2300      	movs	r3, #0
 8000e44:	f842 3b04 	str.w	r3, [r2], #4

08000e48 <LoopFillZerobss>:
 8000e48:	4b08      	ldr	r3, [pc, #32]	; (8000e6c <LoopFillZerobss+0x24>)
 8000e4a:	429a      	cmp	r2, r3
 8000e4c:	d3f9      	bcc.n	8000e42 <FillZerobss>
 8000e4e:	f7ff ffe9 	bl	8000e24 <SystemInit>
 8000e52:	f003 fbe7 	bl	8004624 <__libc_init_array>
 8000e56:	f7ff fd9d 	bl	8000994 <main>
 8000e5a:	4770      	bx	lr
 8000e5c:	080055e8 	.word	0x080055e8
 8000e60:	20000000 	.word	0x20000000
 8000e64:	2000004c 	.word	0x2000004c
 8000e68:	20000050 	.word	0x20000050
 8000e6c:	20002e30 	.word	0x20002e30

08000e70 <ADC1_2_IRQHandler>:
 8000e70:	e7fe      	b.n	8000e70 <ADC1_2_IRQHandler>
	...

08000e74 <close>:
 8000e74:	2808      	cmp	r0, #8
 8000e76:	b5f8      	push	{r3, r4, r5, r6, r7, lr}
 8000e78:	4605      	mov	r5, r0
 8000e7a:	d828      	bhi.n	8000ece <close+0x5a>
 8000e7c:	0144      	lsls	r4, r0, #5
 8000e7e:	3408      	adds	r4, #8
 8000e80:	f504 7780 	add.w	r7, r4, #256	; 0x100
 8000e84:	2110      	movs	r1, #16
 8000e86:	4638      	mov	r0, r7
 8000e88:	f000 fa48 	bl	800131c <WIZCHIP_WRITE>
 8000e8c:	4638      	mov	r0, r7
 8000e8e:	f000 fa27 	bl	80012e0 <WIZCHIP_READ>
 8000e92:	4606      	mov	r6, r0
 8000e94:	2800      	cmp	r0, #0
 8000e96:	d1f9      	bne.n	8000e8c <close+0x18>
 8000e98:	211f      	movs	r1, #31
 8000e9a:	f504 7000 	add.w	r0, r4, #512	; 0x200
 8000e9e:	f000 fa3d 	bl	800131c <WIZCHIP_WRITE>
 8000ea2:	2301      	movs	r3, #1
 8000ea4:	490b      	ldr	r1, [pc, #44]	; (8000ed4 <close+0x60>)
 8000ea6:	fa03 f205 	lsl.w	r2, r3, r5
 8000eaa:	880b      	ldrh	r3, [r1, #0]
 8000eac:	f504 7440 	add.w	r4, r4, #768	; 0x300
 8000eb0:	ea23 0302 	bic.w	r3, r3, r2
 8000eb4:	800b      	strh	r3, [r1, #0]
 8000eb6:	4b08      	ldr	r3, [pc, #32]	; (8000ed8 <close+0x64>)
 8000eb8:	f823 6015 	strh.w	r6, [r3, r5, lsl #1]
 8000ebc:	4b07      	ldr	r3, [pc, #28]	; (8000edc <close+0x68>)
 8000ebe:	555e      	strb	r6, [r3, r5]
 8000ec0:	4620      	mov	r0, r4
 8000ec2:	f000 fa0d 	bl	80012e0 <WIZCHIP_READ>
 8000ec6:	2800      	cmp	r0, #0
 8000ec8:	d1fa      	bne.n	8000ec0 <close+0x4c>
 8000eca:	2001      	movs	r0, #1
 8000ecc:	bdf8      	pop	{r3, r4, r5, r6, r7, pc}
 8000ece:	f04f 30ff 	mov.w	r0, #4294967295
 8000ed2:	e7fb      	b.n	8000ecc <close+0x58>
 8000ed4:	2000007e 	.word	0x2000007e
 8000ed8:	20000088 	.word	0x20000088
 8000edc:	20000080 	.word	0x20000080

08000ee0 <socket>:
 8000ee0:	2808      	cmp	r0, #8
 8000ee2:	e92d 41f0 	stmdb	sp!, {r4, r5, r6, r7, r8, lr}
 8000ee6:	4604      	mov	r4, r0
 8000ee8:	4688      	mov	r8, r1
 8000eea:	4617      	mov	r7, r2
 8000eec:	461d      	mov	r5, r3
 8000eee:	d86c      	bhi.n	8000fca <socket+0xea>
 8000ef0:	2904      	cmp	r1, #4
 8000ef2:	d86d      	bhi.n	8000fd0 <socket+0xf0>
 8000ef4:	2301      	movs	r3, #1
 8000ef6:	408b      	lsls	r3, r1
 8000ef8:	f013 0f16 	tst.w	r3, #22
 8000efc:	d068      	beq.n	8000fd0 <socket+0xf0>
 8000efe:	f015 0f06 	tst.w	r5, #6
 8000f02:	d155      	bne.n	8000fb0 <socket+0xd0>
 8000f04:	b11d      	cbz	r5, 8000f0e <socket+0x2e>
 8000f06:	2901      	cmp	r1, #1
 8000f08:	d04f      	beq.n	8000faa <socket+0xca>
 8000f0a:	2902      	cmp	r1, #2
 8000f0c:	d053      	beq.n	8000fb6 <socket+0xd6>
 8000f0e:	4620      	mov	r0, r4
 8000f10:	0166      	lsls	r6, r4, #5
 8000f12:	f7ff ffaf 	bl	8000e74 <close>
 8000f16:	3608      	adds	r6, #8
 8000f18:	f025 010f 	bic.w	r1, r5, #15
 8000f1c:	ea41 0108 	orr.w	r1, r1, r8
 8000f20:	4630      	mov	r0, r6
 8000f22:	f000 f9fb 	bl	800131c <WIZCHIP_WRITE>
 8000f26:	b96f      	cbnz	r7, 8000f44 <socket+0x64>
 8000f28:	f64f 71f0 	movw	r1, #65520	; 0xfff0
 8000f2c:	4a2a      	ldr	r2, [pc, #168]	; (8000fd8 <socket+0xf8>)
 8000f2e:	8817      	ldrh	r7, [r2, #0]
 8000f30:	1c7b      	adds	r3, r7, #1
 8000f32:	b29b      	uxth	r3, r3
 8000f34:	428b      	cmp	r3, r1
 8000f36:	bf05      	ittet	eq
 8000f38:	f44f 4340 	moveq.w	r3, #49152	; 0xc000
 8000f3c:	f64f 77ef 	movweq	r7, #65519	; 0xffef
 8000f40:	8013      	strhne	r3, [r2, #0]
 8000f42:	8013      	strheq	r3, [r2, #0]
 8000f44:	0a39      	lsrs	r1, r7, #8
 8000f46:	f506 6080 	add.w	r0, r6, #1024	; 0x400
 8000f4a:	f000 f9e7 	bl	800131c <WIZCHIP_WRITE>
 8000f4e:	b2f9      	uxtb	r1, r7
 8000f50:	f506 60a0 	add.w	r0, r6, #1280	; 0x500
 8000f54:	f506 7780 	add.w	r7, r6, #256	; 0x100
 8000f58:	f000 f9e0 	bl	800131c <WIZCHIP_WRITE>
 8000f5c:	2101      	movs	r1, #1
 8000f5e:	4638      	mov	r0, r7
 8000f60:	f000 f9dc 	bl	800131c <WIZCHIP_WRITE>
 8000f64:	4638      	mov	r0, r7
 8000f66:	f000 f9bb 	bl	80012e0 <WIZCHIP_READ>
 8000f6a:	2800      	cmp	r0, #0
 8000f6c:	d1fa      	bne.n	8000f64 <socket+0x84>
 8000f6e:	4b1b      	ldr	r3, [pc, #108]	; (8000fdc <socket+0xfc>)
 8000f70:	f005 0501 	and.w	r5, r5, #1
 8000f74:	881a      	ldrh	r2, [r3, #0]
 8000f76:	40a5      	lsls	r5, r4
 8000f78:	4315      	orrs	r5, r2
 8000f7a:	801d      	strh	r5, [r3, #0]
 8000f7c:	2301      	movs	r3, #1
 8000f7e:	4918      	ldr	r1, [pc, #96]	; (8000fe0 <socket+0x100>)
 8000f80:	fa03 f204 	lsl.w	r2, r3, r4
 8000f84:	880b      	ldrh	r3, [r1, #0]
 8000f86:	f506 7640 	add.w	r6, r6, #768	; 0x300
 8000f8a:	ea23 0302 	bic.w	r3, r3, r2
 8000f8e:	800b      	strh	r3, [r1, #0]
 8000f90:	4b14      	ldr	r3, [pc, #80]	; (8000fe4 <socket+0x104>)
 8000f92:	f823 0014 	strh.w	r0, [r3, r4, lsl #1]
 8000f96:	4b14      	ldr	r3, [pc, #80]	; (8000fe8 <socket+0x108>)
 8000f98:	5518      	strb	r0, [r3, r4]
 8000f9a:	4630      	mov	r0, r6
 8000f9c:	f000 f9a0 	bl	80012e0 <WIZCHIP_READ>
 8000fa0:	2800      	cmp	r0, #0
 8000fa2:	d0fa      	beq.n	8000f9a <socket+0xba>
 8000fa4:	b260      	sxtb	r0, r4
 8000fa6:	e8bd 81f0 	ldmia.w	sp!, {r4, r5, r6, r7, r8, pc}
 8000faa:	f015 0f21 	tst.w	r5, #33	; 0x21
 8000fae:	d1ae      	bne.n	8000f0e <socket+0x2e>
 8000fb0:	f06f 0005 	mvn.w	r0, #5
 8000fb4:	e7f7      	b.n	8000fa6 <socket+0xc6>
 8000fb6:	06a9      	lsls	r1, r5, #26
 8000fb8:	b26b      	sxtb	r3, r5
 8000fba:	d501      	bpl.n	8000fc0 <socket+0xe0>
 8000fbc:	2b00      	cmp	r3, #0
 8000fbe:	daf7      	bge.n	8000fb0 <socket+0xd0>
 8000fc0:	06ea      	lsls	r2, r5, #27
 8000fc2:	d5a4      	bpl.n	8000f0e <socket+0x2e>
 8000fc4:	2b00      	cmp	r3, #0
 8000fc6:	dba2      	blt.n	8000f0e <socket+0x2e>
 8000fc8:	e7f2      	b.n	8000fb0 <socket+0xd0>
 8000fca:	f04f 30ff 	mov.w	r0, #4294967295
 8000fce:	e7ea      	b.n	8000fa6 <socket+0xc6>
 8000fd0:	f06f 0004 	mvn.w	r0, #4
 8000fd4:	e7e7      	b.n	8000fa6 <socket+0xc6>
 8000fd6:	bf00      	nop
 8000fd8:	2000001c 	.word	0x2000001c
 8000fdc:	2000007c 	.word	0x2000007c
 8000fe0:	2000007e 	.word	0x2000007e
 8000fe4:	20000088 	.word	0x20000088
 8000fe8:	20000080 	.word	0x20000080

08000fec <listen>:
 8000fec:	2808      	cmp	r0, #8
 8000fee:	b570      	push	{r4, r5, r6, lr}
 8000ff0:	4605      	mov	r5, r0
 8000ff2:	d82c      	bhi.n	800104e <listen+0x62>
 8000ff4:	0144      	lsls	r4, r0, #5
 8000ff6:	3408      	adds	r4, #8
 8000ff8:	4620      	mov	r0, r4
 8000ffa:	f000 f971 	bl	80012e0 <WIZCHIP_READ>
 8000ffe:	f000 000f 	and.w	r0, r0, #15
 8001002:	2801      	cmp	r0, #1
 8001004:	d126      	bne.n	8001054 <listen+0x68>
 8001006:	f504 7640 	add.w	r6, r4, #768	; 0x300
 800100a:	4630      	mov	r0, r6
 800100c:	f000 f968 	bl	80012e0 <WIZCHIP_READ>
 8001010:	2813      	cmp	r0, #19
 8001012:	d122      	bne.n	800105a <listen+0x6e>
 8001014:	f504 7480 	add.w	r4, r4, #256	; 0x100
 8001018:	2102      	movs	r1, #2
 800101a:	4620      	mov	r0, r4
 800101c:	f000 f97e 	bl	800131c <WIZCHIP_WRITE>
 8001020:	4620      	mov	r0, r4
 8001022:	f000 f95d 	bl	80012e0 <WIZCHIP_READ>
 8001026:	2800      	cmp	r0, #0
 8001028:	d1fa      	bne.n	8001020 <listen+0x34>
 800102a:	4630      	mov	r0, r6
 800102c:	f000 f958 	bl	80012e0 <WIZCHIP_READ>
 8001030:	2814      	cmp	r0, #20
 8001032:	d101      	bne.n	8001038 <listen+0x4c>
 8001034:	2001      	movs	r0, #1
 8001036:	e009      	b.n	800104c <listen+0x60>
 8001038:	4620      	mov	r0, r4
 800103a:	f000 f951 	bl	80012e0 <WIZCHIP_READ>
 800103e:	2800      	cmp	r0, #0
 8001040:	d1f3      	bne.n	800102a <listen+0x3e>
 8001042:	4628      	mov	r0, r5
 8001044:	f7ff ff16 	bl	8000e74 <close>
 8001048:	f06f 0003 	mvn.w	r0, #3
 800104c:	bd70      	pop	{r4, r5, r6, pc}
 800104e:	f04f 30ff 	mov.w	r0, #4294967295
 8001052:	e7fb      	b.n	800104c <listen+0x60>
 8001054:	f06f 0004 	mvn.w	r0, #4
 8001058:	e7f8      	b.n	800104c <listen+0x60>
 800105a:	f06f 0002 	mvn.w	r0, #2
 800105e:	e7f5      	b.n	800104c <listen+0x60>

08001060 <disconnect>:
 8001060:	2808      	cmp	r0, #8
 8001062:	b570      	push	{r4, r5, r6, lr}
 8001064:	4605      	mov	r5, r0
 8001066:	d835      	bhi.n	80010d4 <disconnect+0x74>
 8001068:	0144      	lsls	r4, r0, #5
 800106a:	3408      	adds	r4, #8
 800106c:	4620      	mov	r0, r4
 800106e:	f000 f937 	bl	80012e0 <WIZCHIP_READ>
 8001072:	f000 000f 	and.w	r0, r0, #15
 8001076:	2801      	cmp	r0, #1
 8001078:	d12f      	bne.n	80010da <disconnect+0x7a>
 800107a:	f504 7680 	add.w	r6, r4, #256	; 0x100
 800107e:	2108      	movs	r1, #8
 8001080:	4630      	mov	r0, r6
 8001082:	f000 f94b 	bl	800131c <WIZCHIP_WRITE>
 8001086:	4630      	mov	r0, r6
 8001088:	f000 f92a 	bl	80012e0 <WIZCHIP_READ>
 800108c:	2800      	cmp	r0, #0
 800108e:	d1fa      	bne.n	8001086 <disconnect+0x26>
 8001090:	2301      	movs	r3, #1
 8001092:	4913      	ldr	r1, [pc, #76]	; (80010e0 <disconnect+0x80>)
 8001094:	fa03 f205 	lsl.w	r2, r3, r5
 8001098:	880b      	ldrh	r3, [r1, #0]
 800109a:	ea23 0302 	bic.w	r3, r3, r2
 800109e:	800b      	strh	r3, [r1, #0]
 80010a0:	4b10      	ldr	r3, [pc, #64]	; (80010e4 <disconnect+0x84>)
 80010a2:	881b      	ldrh	r3, [r3, #0]
 80010a4:	412b      	asrs	r3, r5
 80010a6:	07da      	lsls	r2, r3, #31
 80010a8:	d413      	bmi.n	80010d2 <disconnect+0x72>
 80010aa:	f504 7640 	add.w	r6, r4, #768	; 0x300
 80010ae:	f504 7400 	add.w	r4, r4, #512	; 0x200
 80010b2:	4630      	mov	r0, r6
 80010b4:	f000 f914 	bl	80012e0 <WIZCHIP_READ>
 80010b8:	b908      	cbnz	r0, 80010be <disconnect+0x5e>
 80010ba:	2001      	movs	r0, #1
 80010bc:	e009      	b.n	80010d2 <disconnect+0x72>
 80010be:	4620      	mov	r0, r4
 80010c0:	f000 f90e 	bl	80012e0 <WIZCHIP_READ>
 80010c4:	0703      	lsls	r3, r0, #28
 80010c6:	d5f4      	bpl.n	80010b2 <disconnect+0x52>
 80010c8:	4628      	mov	r0, r5
 80010ca:	f7ff fed3 	bl	8000e74 <close>
 80010ce:	f06f 000c 	mvn.w	r0, #12
 80010d2:	bd70      	pop	{r4, r5, r6, pc}
 80010d4:	f04f 30ff 	mov.w	r0, #4294967295
 80010d8:	e7fb      	b.n	80010d2 <disconnect+0x72>
 80010da:	f06f 0004 	mvn.w	r0, #4
 80010de:	e7f8      	b.n	80010d2 <disconnect+0x72>
 80010e0:	2000007e 	.word	0x2000007e
 80010e4:	2000007c 	.word	0x2000007c

080010e8 <send>:
 80010e8:	2808      	cmp	r0, #8
 80010ea:	e92d 4ff7 	stmdb	sp!, {r0, r1, r2, r4, r5, r6, r7, r8, r9, sl, fp, lr}
 80010ee:	4606      	mov	r6, r0
 80010f0:	468a      	mov	sl, r1
 80010f2:	4614      	mov	r4, r2
 80010f4:	d879      	bhi.n	80011ea <send+0x102>
 80010f6:	0145      	lsls	r5, r0, #5
 80010f8:	3508      	adds	r5, #8
 80010fa:	4628      	mov	r0, r5
 80010fc:	f000 f8f0 	bl	80012e0 <WIZCHIP_READ>
 8001100:	f000 000f 	and.w	r0, r0, #15
 8001104:	2801      	cmp	r0, #1
 8001106:	d173      	bne.n	80011f0 <send+0x108>
 8001108:	2c00      	cmp	r4, #0
 800110a:	d074      	beq.n	80011f6 <send+0x10e>
 800110c:	f505 7940 	add.w	r9, r5, #768	; 0x300
 8001110:	4648      	mov	r0, r9
 8001112:	f000 f8e5 	bl	80012e0 <WIZCHIP_READ>
 8001116:	2817      	cmp	r0, #23
 8001118:	d001      	beq.n	800111e <send+0x36>
 800111a:	281c      	cmp	r0, #28
 800111c:	d137      	bne.n	800118e <send+0xa6>
 800111e:	4a37      	ldr	r2, [pc, #220]	; (80011fc <send+0x114>)
 8001120:	8813      	ldrh	r3, [r2, #0]
 8001122:	4690      	mov	r8, r2
 8001124:	4133      	asrs	r3, r6
 8001126:	f013 0f01 	tst.w	r3, #1
 800112a:	d013      	beq.n	8001154 <send+0x6c>
 800112c:	f505 7700 	add.w	r7, r5, #512	; 0x200
 8001130:	4638      	mov	r0, r7
 8001132:	f000 f8d5 	bl	80012e0 <WIZCHIP_READ>
 8001136:	06c2      	lsls	r2, r0, #27
 8001138:	d52c      	bpl.n	8001194 <send+0xac>
 800113a:	2110      	movs	r1, #16
 800113c:	4638      	mov	r0, r7
 800113e:	f000 f8ed 	bl	800131c <WIZCHIP_WRITE>
 8001142:	2301      	movs	r3, #1
 8001144:	fa03 f206 	lsl.w	r2, r3, r6
 8001148:	f8b8 3000 	ldrh.w	r3, [r8]
 800114c:	ea23 0302 	bic.w	r3, r3, r2
 8001150:	f8a8 3000 	strh.w	r3, [r8]
 8001154:	f505 50f8 	add.w	r0, r5, #7936	; 0x1f00
 8001158:	f000 f8c2 	bl	80012e0 <WIZCHIP_READ>
 800115c:	0280      	lsls	r0, r0, #10
 800115e:	b280      	uxth	r0, r0
 8001160:	4284      	cmp	r4, r0
 8001162:	f04f 0701 	mov.w	r7, #1
 8001166:	bf28      	it	cs
 8001168:	4604      	movcs	r4, r0
 800116a:	4b25      	ldr	r3, [pc, #148]	; (8001200 <send+0x118>)
 800116c:	40b7      	lsls	r7, r6
 800116e:	4630      	mov	r0, r6
 8001170:	9301      	str	r3, [sp, #4]
 8001172:	f000 f941 	bl	80013f8 <getSn_TX_FSR>
 8001176:	4683      	mov	fp, r0
 8001178:	4648      	mov	r0, r9
 800117a:	f000 f8b1 	bl	80012e0 <WIZCHIP_READ>
 800117e:	2817      	cmp	r0, #23
 8001180:	9b01      	ldr	r3, [sp, #4]
 8001182:	d013      	beq.n	80011ac <send+0xc4>
 8001184:	281c      	cmp	r0, #28
 8001186:	d011      	beq.n	80011ac <send+0xc4>
 8001188:	4630      	mov	r0, r6
 800118a:	f7ff fe73 	bl	8000e74 <close>
 800118e:	f06f 0006 	mvn.w	r0, #6
 8001192:	e002      	b.n	800119a <send+0xb2>
 8001194:	0703      	lsls	r3, r0, #28
 8001196:	d403      	bmi.n	80011a0 <send+0xb8>
 8001198:	2000      	movs	r0, #0
 800119a:	b003      	add	sp, #12
 800119c:	e8bd 8ff0 	ldmia.w	sp!, {r4, r5, r6, r7, r8, r9, sl, fp, pc}
 80011a0:	4630      	mov	r0, r6
 80011a2:	f7ff fe67 	bl	8000e74 <close>
 80011a6:	f06f 000c 	mvn.w	r0, #12
 80011aa:	e7f6      	b.n	800119a <send+0xb2>
 80011ac:	881a      	ldrh	r2, [r3, #0]
 80011ae:	423a      	tst	r2, r7
 80011b0:	d018      	beq.n	80011e4 <send+0xfc>
 80011b2:	45a3      	cmp	fp, r4
 80011b4:	d3f0      	bcc.n	8001198 <send+0xb0>
 80011b6:	4651      	mov	r1, sl
 80011b8:	4630      	mov	r0, r6
 80011ba:	4622      	mov	r2, r4
 80011bc:	f505 7580 	add.w	r5, r5, #256	; 0x100
 80011c0:	f000 f95c 	bl	800147c <wiz_send_data>
 80011c4:	2120      	movs	r1, #32
 80011c6:	4628      	mov	r0, r5
 80011c8:	f000 f8a8 	bl	800131c <WIZCHIP_WRITE>
 80011cc:	4628      	mov	r0, r5
 80011ce:	f000 f887 	bl	80012e0 <WIZCHIP_READ>
 80011d2:	2800      	cmp	r0, #0
 80011d4:	d1fa      	bne.n	80011cc <send+0xe4>
 80011d6:	f8b8 3000 	ldrh.w	r3, [r8]
 80011da:	4620      	mov	r0, r4
 80011dc:	431f      	orrs	r7, r3
 80011de:	f8a8 7000 	strh.w	r7, [r8]
 80011e2:	e7da      	b.n	800119a <send+0xb2>
 80011e4:	45a3      	cmp	fp, r4
 80011e6:	d3c2      	bcc.n	800116e <send+0x86>
 80011e8:	e7e5      	b.n	80011b6 <send+0xce>
 80011ea:	f04f 30ff 	mov.w	r0, #4294967295
 80011ee:	e7d4      	b.n	800119a <send+0xb2>
 80011f0:	f06f 0004 	mvn.w	r0, #4
 80011f4:	e7d1      	b.n	800119a <send+0xb2>
 80011f6:	f06f 000d 	mvn.w	r0, #13
 80011fa:	e7ce      	b.n	800119a <send+0xb2>
 80011fc:	2000007e 	.word	0x2000007e
 8001200:	2000007c 	.word	0x2000007c

08001204 <recv>:
 8001204:	2808      	cmp	r0, #8
 8001206:	e92d 4ff7 	stmdb	sp!, {r0, r1, r2, r4, r5, r6, r7, r8, r9, sl, fp, lr}
 800120a:	4683      	mov	fp, r0
 800120c:	4688      	mov	r8, r1
 800120e:	4617      	mov	r7, r2
 8001210:	d85a      	bhi.n	80012c8 <recv+0xc4>
 8001212:	0144      	lsls	r4, r0, #5
 8001214:	3408      	adds	r4, #8
 8001216:	4620      	mov	r0, r4
 8001218:	f000 f862 	bl	80012e0 <WIZCHIP_READ>
 800121c:	f000 060f 	and.w	r6, r0, #15
 8001220:	2e01      	cmp	r6, #1
 8001222:	d154      	bne.n	80012ce <recv+0xca>
 8001224:	2f00      	cmp	r7, #0
 8001226:	d055      	beq.n	80012d4 <recv+0xd0>
 8001228:	f504 50f0 	add.w	r0, r4, #7680	; 0x1e00
 800122c:	f000 f858 	bl	80012e0 <WIZCHIP_READ>
 8001230:	fa06 f60b 	lsl.w	r6, r6, fp
 8001234:	9000      	str	r0, [sp, #0]
 8001236:	f504 7940 	add.w	r9, r4, #768	; 0x300
 800123a:	f504 5af8 	add.w	sl, r4, #7936	; 0x1f00
 800123e:	4658      	mov	r0, fp
 8001240:	f000 f8fb 	bl	800143a <getSn_RX_RSR>
 8001244:	4605      	mov	r5, r0
 8001246:	4648      	mov	r0, r9
 8001248:	f000 f84a 	bl	80012e0 <WIZCHIP_READ>
 800124c:	2817      	cmp	r0, #23
 800124e:	d015      	beq.n	800127c <recv+0x78>
 8001250:	281c      	cmp	r0, #28
 8001252:	d10b      	bne.n	800126c <recv+0x68>
 8001254:	b9dd      	cbnz	r5, 800128e <recv+0x8a>
 8001256:	4658      	mov	r0, fp
 8001258:	f000 f8ce 	bl	80013f8 <getSn_TX_FSR>
 800125c:	9001      	str	r0, [sp, #4]
 800125e:	4650      	mov	r0, sl
 8001260:	f000 f83e 	bl	80012e0 <WIZCHIP_READ>
 8001264:	9901      	ldr	r1, [sp, #4]
 8001266:	ebb1 2f80 	cmp.w	r1, r0, lsl #10
 800126a:	d107      	bne.n	800127c <recv+0x78>
 800126c:	4658      	mov	r0, fp
 800126e:	f7ff fe01 	bl	8000e74 <close>
 8001272:	f06f 0006 	mvn.w	r0, #6
 8001276:	b003      	add	sp, #12
 8001278:	e8bd 8ff0 	ldmia.w	sp!, {r4, r5, r6, r7, r8, r9, sl, fp, pc}
 800127c:	4b17      	ldr	r3, [pc, #92]	; (80012dc <recv+0xd8>)
 800127e:	8819      	ldrh	r1, [r3, #0]
 8001280:	4231      	tst	r1, r6
 8001282:	d002      	beq.n	800128a <recv+0x86>
 8001284:	b91d      	cbnz	r5, 800128e <recv+0x8a>
 8001286:	4628      	mov	r0, r5
 8001288:	e7f5      	b.n	8001276 <recv+0x72>
 800128a:	2d00      	cmp	r5, #0
 800128c:	d0d7      	beq.n	800123e <recv+0x3a>
 800128e:	9b00      	ldr	r3, [sp, #0]
 8001290:	4641      	mov	r1, r8
 8001292:	0298      	lsls	r0, r3, #10
 8001294:	b280      	uxth	r0, r0
 8001296:	4287      	cmp	r7, r0
 8001298:	bf28      	it	cs
 800129a:	4607      	movcs	r7, r0
 800129c:	42bd      	cmp	r5, r7
 800129e:	4628      	mov	r0, r5
 80012a0:	bf28      	it	cs
 80012a2:	4638      	movcs	r0, r7
 80012a4:	b287      	uxth	r7, r0
 80012a6:	463a      	mov	r2, r7
 80012a8:	4658      	mov	r0, fp
 80012aa:	f504 7480 	add.w	r4, r4, #256	; 0x100
 80012ae:	f000 f911 	bl	80014d4 <wiz_recv_data>
 80012b2:	2140      	movs	r1, #64	; 0x40
 80012b4:	4620      	mov	r0, r4
 80012b6:	f000 f831 	bl	800131c <WIZCHIP_WRITE>
 80012ba:	4620      	mov	r0, r4
 80012bc:	f000 f810 	bl	80012e0 <WIZCHIP_READ>
 80012c0:	2800      	cmp	r0, #0
 80012c2:	d1fa      	bne.n	80012ba <recv+0xb6>
 80012c4:	4638      	mov	r0, r7
 80012c6:	e7d6      	b.n	8001276 <recv+0x72>
 80012c8:	f04f 30ff 	mov.w	r0, #4294967295
 80012cc:	e7d3      	b.n	8001276 <recv+0x72>
 80012ce:	f06f 0004 	mvn.w	r0, #4
 80012d2:	e7d0      	b.n	8001276 <recv+0x72>
 80012d4:	f06f 000d 	mvn.w	r0, #13
 80012d8:	e7cd      	b.n	8001276 <recv+0x72>
 80012da:	bf00      	nop
 80012dc:	2000007c 	.word	0x2000007c

080012e0 <WIZCHIP_READ>:
 80012e0:	b538      	push	{r3, r4, r5, lr}
 80012e2:	4605      	mov	r5, r0
 80012e4:	4c0c      	ldr	r4, [pc, #48]	; (8001318 <WIZCHIP_READ+0x38>)
 80012e6:	68a3      	ldr	r3, [r4, #8]
 80012e8:	4798      	blx	r3
 80012ea:	6923      	ldr	r3, [r4, #16]
 80012ec:	4798      	blx	r3
 80012ee:	69e3      	ldr	r3, [r4, #28]
 80012f0:	f3c5 4007 	ubfx	r0, r5, #16, #8
 80012f4:	4798      	blx	r3
 80012f6:	69e3      	ldr	r3, [r4, #28]
 80012f8:	f3c5 2007 	ubfx	r0, r5, #8, #8
 80012fc:	4798      	blx	r3
 80012fe:	69e3      	ldr	r3, [r4, #28]
 8001300:	b2e8      	uxtb	r0, r5
 8001302:	4798      	blx	r3
 8001304:	69a3      	ldr	r3, [r4, #24]
 8001306:	4798      	blx	r3
 8001308:	4605      	mov	r5, r0
 800130a:	6963      	ldr	r3, [r4, #20]
 800130c:	4798      	blx	r3
 800130e:	68e3      	ldr	r3, [r4, #12]
 8001310:	4798      	blx	r3
 8001312:	4628      	mov	r0, r5
 8001314:	bd38      	pop	{r3, r4, r5, pc}
 8001316:	bf00      	nop
 8001318:	20000020 	.word	0x20000020

0800131c <WIZCHIP_WRITE>:
 800131c:	b570      	push	{r4, r5, r6, lr}
 800131e:	4605      	mov	r5, r0
 8001320:	460e      	mov	r6, r1
 8001322:	4c0d      	ldr	r4, [pc, #52]	; (8001358 <WIZCHIP_WRITE+0x3c>)
 8001324:	f045 0504 	orr.w	r5, r5, #4
 8001328:	68a3      	ldr	r3, [r4, #8]
 800132a:	4798      	blx	r3
 800132c:	6923      	ldr	r3, [r4, #16]
 800132e:	4798      	blx	r3
 8001330:	69e3      	ldr	r3, [r4, #28]
 8001332:	f3c5 4007 	ubfx	r0, r5, #16, #8
 8001336:	4798      	blx	r3
 8001338:	69e3      	ldr	r3, [r4, #28]
 800133a:	f3c5 2007 	ubfx	r0, r5, #8, #8
 800133e:	4798      	blx	r3
 8001340:	69e3      	ldr	r3, [r4, #28]
 8001342:	b2e8      	uxtb	r0, r5
 8001344:	4798      	blx	r3
 8001346:	69e3      	ldr	r3, [r4, #28]
 8001348:	4630      	mov	r0, r6
 800134a:	4798      	blx	r3
 800134c:	6963      	ldr	r3, [r4, #20]
 800134e:	4798      	blx	r3
 8001350:	68e3      	ldr	r3, [r4, #12]
 8001352:	e8bd 4070 	ldmia.w	sp!, {r4, r5, r6, lr}
 8001356:	4718      	bx	r3
 8001358:	20000020 	.word	0x20000020

0800135c <WIZCHIP_READ_BUF>:
 800135c:	e92d 41f0 	stmdb	sp!, {r4, r5, r6, r7, r8, lr}
 8001360:	4607      	mov	r7, r0
 8001362:	4c10      	ldr	r4, [pc, #64]	; (80013a4 <WIZCHIP_READ_BUF+0x48>)
 8001364:	460d      	mov	r5, r1
 8001366:	68a3      	ldr	r3, [r4, #8]
 8001368:	4616      	mov	r6, r2
 800136a:	4798      	blx	r3
 800136c:	6923      	ldr	r3, [r4, #16]
 800136e:	4798      	blx	r3
 8001370:	69e3      	ldr	r3, [r4, #28]
 8001372:	f3c7 4007 	ubfx	r0, r7, #16, #8
 8001376:	4798      	blx	r3
 8001378:	69e3      	ldr	r3, [r4, #28]
 800137a:	f3c7 2007 	ubfx	r0, r7, #8, #8
 800137e:	4798      	blx	r3
 8001380:	69e3      	ldr	r3, [r4, #28]
 8001382:	b2f8      	uxtb	r0, r7
 8001384:	4798      	blx	r3
 8001386:	3d01      	subs	r5, #1
 8001388:	442e      	add	r6, r5
 800138a:	42b5      	cmp	r5, r6
 800138c:	d105      	bne.n	800139a <WIZCHIP_READ_BUF+0x3e>
 800138e:	6963      	ldr	r3, [r4, #20]
 8001390:	4798      	blx	r3
 8001392:	68e3      	ldr	r3, [r4, #12]
 8001394:	e8bd 41f0 	ldmia.w	sp!, {r4, r5, r6, r7, r8, lr}
 8001398:	4718      	bx	r3
 800139a:	69a3      	ldr	r3, [r4, #24]
 800139c:	4798      	blx	r3
 800139e:	f805 0f01 	strb.w	r0, [r5, #1]!
 80013a2:	e7f2      	b.n	800138a <WIZCHIP_READ_BUF+0x2e>
 80013a4:	20000020 	.word	0x20000020

080013a8 <WIZCHIP_WRITE_BUF>:
 80013a8:	e92d 41f0 	stmdb	sp!, {r4, r5, r6, r7, r8, lr}
 80013ac:	4606      	mov	r6, r0
 80013ae:	4c11      	ldr	r4, [pc, #68]	; (80013f4 <WIZCHIP_WRITE_BUF+0x4c>)
 80013b0:	460d      	mov	r5, r1
 80013b2:	68a3      	ldr	r3, [r4, #8]
 80013b4:	4617      	mov	r7, r2
 80013b6:	f046 0604 	orr.w	r6, r6, #4
 80013ba:	4798      	blx	r3
 80013bc:	6923      	ldr	r3, [r4, #16]
 80013be:	4798      	blx	r3
 80013c0:	69e3      	ldr	r3, [r4, #28]
 80013c2:	f3c6 4007 	ubfx	r0, r6, #16, #8
 80013c6:	4798      	blx	r3
 80013c8:	69e3      	ldr	r3, [r4, #28]
 80013ca:	f3c6 2007 	ubfx	r0, r6, #8, #8
 80013ce:	4798      	blx	r3
 80013d0:	69e3      	ldr	r3, [r4, #28]
 80013d2:	b2f0      	uxtb	r0, r6
 80013d4:	4798      	blx	r3
 80013d6:	3d01      	subs	r5, #1
 80013d8:	442f      	add	r7, r5
 80013da:	42bd      	cmp	r5, r7
 80013dc:	d105      	bne.n	80013ea <WIZCHIP_WRITE_BUF+0x42>
 80013de:	6963      	ldr	r3, [r4, #20]
 80013e0:	4798      	blx	r3
 80013e2:	68e3      	ldr	r3, [r4, #12]
 80013e4:	e8bd 41f0 	ldmia.w	sp!, {r4, r5, r6, r7, r8, lr}
 80013e8:	4718      	bx	r3
 80013ea:	69e3      	ldr	r3, [r4, #28]
 80013ec:	f815 0f01 	ldrb.w	r0, [r5, #1]!
 80013f0:	4798      	blx	r3
 80013f2:	e7f2      	b.n	80013da <WIZCHIP_WRITE_BUF+0x32>
 80013f4:	20000020 	.word	0x20000020

080013f8 <getSn_TX_FSR>:
 80013f8:	b5f8      	push	{r3, r4, r5, r6, r7, lr}
 80013fa:	2400      	movs	r4, #0
 80013fc:	0146      	lsls	r6, r0, #5
 80013fe:	3608      	adds	r6, #8
 8001400:	f506 5700 	add.w	r7, r6, #8192	; 0x2000
 8001404:	f506 5604 	add.w	r6, r6, #8448	; 0x2100
 8001408:	4638      	mov	r0, r7
 800140a:	f7ff ff69 	bl	80012e0 <WIZCHIP_READ>
 800140e:	0200      	lsls	r0, r0, #8
 8001410:	b285      	uxth	r5, r0
 8001412:	4630      	mov	r0, r6
 8001414:	f7ff ff64 	bl	80012e0 <WIZCHIP_READ>
 8001418:	4405      	add	r5, r0
 800141a:	b2ad      	uxth	r5, r5
 800141c:	b14d      	cbz	r5, 8001432 <getSn_TX_FSR+0x3a>
 800141e:	4638      	mov	r0, r7
 8001420:	f7ff ff5e 	bl	80012e0 <WIZCHIP_READ>
 8001424:	0200      	lsls	r0, r0, #8
 8001426:	b284      	uxth	r4, r0
 8001428:	4630      	mov	r0, r6
 800142a:	f7ff ff59 	bl	80012e0 <WIZCHIP_READ>
 800142e:	4404      	add	r4, r0
 8001430:	b2a4      	uxth	r4, r4
 8001432:	42ac      	cmp	r4, r5
 8001434:	d1e8      	bne.n	8001408 <getSn_TX_FSR+0x10>
 8001436:	4620      	mov	r0, r4
 8001438:	bdf8      	pop	{r3, r4, r5, r6, r7, pc}

0800143a <getSn_RX_RSR>:
 800143a:	b5f8      	push	{r3, r4, r5, r6, r7, lr}
 800143c:	2400      	movs	r4, #0
 800143e:	0146      	lsls	r6, r0, #5
 8001440:	3608      	adds	r6, #8
 8001442:	f506 5718 	add.w	r7, r6, #9728	; 0x2600
 8001446:	f506 561c 	add.w	r6, r6, #9984	; 0x2700
 800144a:	4638      	mov	r0, r7
 800144c:	f7ff ff48 	bl	80012e0 <WIZCHIP_READ>
 8001450:	0200      	lsls	r0, r0, #8
 8001452:	b285      	uxth	r5, r0
 8001454:	4630      	mov	r0, r6
 8001456:	f7ff ff43 	bl	80012e0 <WIZCHIP_READ>
 800145a:	4405      	add	r5, r0
 800145c:	b2ad      	uxth	r5, r5
 800145e:	b14d      	cbz	r5, 8001474 <getSn_RX_RSR+0x3a>
 8001460:	4638      	mov	r0, r7
 8001462:	f7ff ff3d 	bl	80012e0 <WIZCHIP_READ>
 8001466:	0200      	lsls	r0, r0, #8
 8001468:	b284      	uxth	r4, r0
 800146a:	4630      	mov	r0, r6
 800146c:	f7ff ff38 	bl	80012e0 <WIZCHIP_READ>
 8001470:	4404      	add	r4, r0
 8001472:	b2a4      	uxth	r4, r4
 8001474:	42ac      	cmp	r4, r5
 8001476:	d1e8      	bne.n	800144a <getSn_RX_RSR+0x10>
 8001478:	4620      	mov	r0, r4
 800147a:	bdf8      	pop	{r3, r4, r5, r6, r7, pc}

0800147c <wiz_send_data>:
 800147c:	e92d 43f8 	stmdb	sp!, {r3, r4, r5, r6, r7, r8, r9, lr}
 8001480:	4689      	mov	r9, r1
 8001482:	4614      	mov	r4, r2
 8001484:	b322      	cbz	r2, 80014d0 <wiz_send_data+0x54>
 8001486:	0087      	lsls	r7, r0, #2
 8001488:	1c7d      	adds	r5, r7, #1
 800148a:	00ed      	lsls	r5, r5, #3
 800148c:	f505 5810 	add.w	r8, r5, #9216	; 0x2400
 8001490:	4640      	mov	r0, r8
 8001492:	f7ff ff25 	bl	80012e0 <WIZCHIP_READ>
 8001496:	f505 5514 	add.w	r5, r5, #9472	; 0x2500
 800149a:	4606      	mov	r6, r0
 800149c:	4628      	mov	r0, r5
 800149e:	f7ff ff1f 	bl	80012e0 <WIZCHIP_READ>
 80014a2:	eb00 2606 	add.w	r6, r0, r6, lsl #8
 80014a6:	b2b6      	uxth	r6, r6
 80014a8:	4622      	mov	r2, r4
 80014aa:	3702      	adds	r7, #2
 80014ac:	0230      	lsls	r0, r6, #8
 80014ae:	4434      	add	r4, r6
 80014b0:	4649      	mov	r1, r9
 80014b2:	eb00 00c7 	add.w	r0, r0, r7, lsl #3
 80014b6:	b2a4      	uxth	r4, r4
 80014b8:	f7ff ff76 	bl	80013a8 <WIZCHIP_WRITE_BUF>
 80014bc:	0a21      	lsrs	r1, r4, #8
 80014be:	4640      	mov	r0, r8
 80014c0:	f7ff ff2c 	bl	800131c <WIZCHIP_WRITE>
 80014c4:	b2e1      	uxtb	r1, r4
 80014c6:	4628      	mov	r0, r5
 80014c8:	e8bd 43f8 	ldmia.w	sp!, {r3, r4, r5, r6, r7, r8, r9, lr}
 80014cc:	f7ff bf26 	b.w	800131c <WIZCHIP_WRITE>
 80014d0:	e8bd 83f8 	ldmia.w	sp!, {r3, r4, r5, r6, r7, r8, r9, pc}

080014d4 <wiz_recv_data>:
 80014d4:	e92d 43f8 	stmdb	sp!, {r3, r4, r5, r6, r7, r8, r9, lr}
 80014d8:	4689      	mov	r9, r1
 80014da:	4614      	mov	r4, r2
 80014dc:	b322      	cbz	r2, 8001528 <wiz_recv_data+0x54>
 80014de:	0087      	lsls	r7, r0, #2
 80014e0:	1c7d      	adds	r5, r7, #1
 80014e2:	00ed      	lsls	r5, r5, #3
 80014e4:	f505 5820 	add.w	r8, r5, #10240	; 0x2800
 80014e8:	4640      	mov	r0, r8
 80014ea:	f7ff fef9 	bl	80012e0 <WIZCHIP_READ>
 80014ee:	f505 5524 	add.w	r5, r5, #10496	; 0x2900
 80014f2:	4606      	mov	r6, r0
 80014f4:	4628      	mov	r0, r5
 80014f6:	f7ff fef3 	bl	80012e0 <WIZCHIP_READ>
 80014fa:	eb00 2606 	add.w	r6, r0, r6, lsl #8
 80014fe:	b2b6      	uxth	r6, r6
 8001500:	4622      	mov	r2, r4
 8001502:	3703      	adds	r7, #3
 8001504:	0230      	lsls	r0, r6, #8
 8001506:	4434      	add	r4, r6
 8001508:	4649      	mov	r1, r9
 800150a:	eb00 00c7 	add.w	r0, r0, r7, lsl #3
 800150e:	b2a4      	uxth	r4, r4
 8001510:	f7ff ff24 	bl	800135c <WIZCHIP_READ_BUF>
 8001514:	0a21      	lsrs	r1, r4, #8
 8001516:	4640      	mov	r0, r8
 8001518:	f7ff ff00 	bl	800131c <WIZCHIP_WRITE>
 800151c:	b2e1      	uxtb	r1, r4
 800151e:	4628      	mov	r0, r5
 8001520:	e8bd 43f8 	ldmia.w	sp!, {r3, r4, r5, r6, r7, r8, r9, lr}
 8001524:	f7ff befa 	b.w	800131c <WIZCHIP_WRITE>
 8001528:	e8bd 83f8 	ldmia.w	sp!, {r3, r4, r5, r6, r7, r8, r9, pc}

0800152c <wizchip_cris_enter>:
 800152c:	4770      	bx	lr

0800152e <wizchip_bus_readbyte>:
 800152e:	7800      	ldrb	r0, [r0, #0]
 8001530:	4770      	bx	lr

08001532 <wizchip_bus_writebyte>:
 8001532:	7001      	strb	r1, [r0, #0]
 8001534:	4770      	bx	lr

08001536 <wizchip_spi_readbyte>:
 8001536:	2000      	movs	r0, #0
 8001538:	4770      	bx	lr

0800153a <wizchip_spi_writebyte>:
 800153a:	4770      	bx	lr

0800153c <wizchip_cs_deselect>:
 800153c:	4770      	bx	lr

0800153e <wizchip_cris_exit>:
 800153e:	4770      	bx	lr

08001540 <wizchip_cs_select>:
 8001540:	4770      	bx	lr
	...

08001544 <reg_wizchip_cs_cbfunc>:
 8001544:	4b05      	ldr	r3, [pc, #20]	; (800155c <reg_wizchip_cs_cbfunc+0x18>)
 8001546:	b100      	cbz	r0, 800154a <reg_wizchip_cs_cbfunc+0x6>
 8001548:	b921      	cbnz	r1, 8001554 <reg_wizchip_cs_cbfunc+0x10>
 800154a:	4a05      	ldr	r2, [pc, #20]	; (8001560 <reg_wizchip_cs_cbfunc+0x1c>)
 800154c:	611a      	str	r2, [r3, #16]
 800154e:	4a05      	ldr	r2, [pc, #20]	; (8001564 <reg_wizchip_cs_cbfunc+0x20>)
 8001550:	615a      	str	r2, [r3, #20]
 8001552:	4770      	bx	lr
 8001554:	e9c3 0104 	strd	r0, r1, [r3, #16]
 8001558:	4770      	bx	lr
 800155a:	bf00      	nop
 800155c:	20000020 	.word	0x20000020
 8001560:	08001541 	.word	0x08001541
 8001564:	0800153d 	.word	0x0800153d

08001568 <reg_wizchip_spi_cbfunc>:
 8001568:	4b08      	ldr	r3, [pc, #32]	; (800158c <reg_wizchip_spi_cbfunc+0x24>)
 800156a:	b510      	push	{r4, lr}
 800156c:	881c      	ldrh	r4, [r3, #0]
 800156e:	461a      	mov	r2, r3
 8001570:	05a4      	lsls	r4, r4, #22
 8001572:	d400      	bmi.n	8001576 <reg_wizchip_spi_cbfunc+0xe>
 8001574:	e7fe      	b.n	8001574 <reg_wizchip_spi_cbfunc+0xc>
 8001576:	b100      	cbz	r0, 800157a <reg_wizchip_spi_cbfunc+0x12>
 8001578:	b921      	cbnz	r1, 8001584 <reg_wizchip_spi_cbfunc+0x1c>
 800157a:	4b05      	ldr	r3, [pc, #20]	; (8001590 <reg_wizchip_spi_cbfunc+0x28>)
 800157c:	6193      	str	r3, [r2, #24]
 800157e:	4b05      	ldr	r3, [pc, #20]	; (8001594 <reg_wizchip_spi_cbfunc+0x2c>)
 8001580:	61d3      	str	r3, [r2, #28]
 8001582:	bd10      	pop	{r4, pc}
 8001584:	e9c3 0106 	strd	r0, r1, [r3, #24]
 8001588:	e7fb      	b.n	8001582 <reg_wizchip_spi_cbfunc+0x1a>
 800158a:	bf00      	nop
 800158c:	20000020 	.word	0x20000020
 8001590:	08001537 	.word	0x08001537
 8001594:	0800153b 	.word	0x0800153b

08001598 <wizchip_sw_reset>:
 8001598:	b57f      	push	{r0, r1, r2, r3, r4, r5, r6, lr}
 800159a:	2206      	movs	r2, #6
 800159c:	a904      	add	r1, sp, #16
 800159e:	f44f 6010 	mov.w	r0, #2304	; 0x900
 80015a2:	f7ff fedb 	bl	800135c <WIZCHIP_READ_BUF>
 80015a6:	2204      	movs	r2, #4
 80015a8:	f44f 7080 	mov.w	r0, #256	; 0x100
 80015ac:	eb0d 0102 	add.w	r1, sp, r2
 80015b0:	f7ff fed4 	bl	800135c <WIZCHIP_READ_BUF>
 80015b4:	a902      	add	r1, sp, #8
 80015b6:	2204      	movs	r2, #4
 80015b8:	f44f 60a0 	mov.w	r0, #1280	; 0x500
 80015bc:	f7ff fece 	bl	800135c <WIZCHIP_READ_BUF>
 80015c0:	2204      	movs	r2, #4
 80015c2:	a903      	add	r1, sp, #12
 80015c4:	f44f 6070 	mov.w	r0, #3840	; 0xf00
 80015c8:	f7ff fec8 	bl	800135c <WIZCHIP_READ_BUF>
 80015cc:	2180      	movs	r1, #128	; 0x80
 80015ce:	2000      	movs	r0, #0
 80015d0:	f7ff fea4 	bl	800131c <WIZCHIP_WRITE>
 80015d4:	2000      	movs	r0, #0
 80015d6:	f7ff fe83 	bl	80012e0 <WIZCHIP_READ>
 80015da:	a904      	add	r1, sp, #16
 80015dc:	2206      	movs	r2, #6
 80015de:	f44f 6010 	mov.w	r0, #2304	; 0x900
 80015e2:	f7ff fee1 	bl	80013a8 <WIZCHIP_WRITE_BUF>
 80015e6:	2204      	movs	r2, #4
 80015e8:	f44f 7080 	mov.w	r0, #256	; 0x100
 80015ec:	eb0d 0102 	add.w	r1, sp, r2
 80015f0:	f7ff feda 	bl	80013a8 <WIZCHIP_WRITE_BUF>
 80015f4:	a902      	add	r1, sp, #8
 80015f6:	2204      	movs	r2, #4
 80015f8:	f44f 60a0 	mov.w	r0, #1280	; 0x500
 80015fc:	f7ff fed4 	bl	80013a8 <WIZCHIP_WRITE_BUF>
 8001600:	2204      	movs	r2, #4
 8001602:	a903      	add	r1, sp, #12
 8001604:	f44f 6070 	mov.w	r0, #3840	; 0xf00
 8001608:	f7ff fece 	bl	80013a8 <WIZCHIP_WRITE_BUF>
 800160c:	b007      	add	sp, #28
 800160e:	f85d fb04 	ldr.w	pc, [sp], #4

08001612 <wizchip_init>:
 8001612:	b5f8      	push	{r3, r4, r5, r6, r7, lr}
 8001614:	4605      	mov	r5, r0
 8001616:	460c      	mov	r4, r1
 8001618:	f7ff ffbe 	bl	8001598 <wizchip_sw_reset>
 800161c:	b1bd      	cbz	r5, 800164e <wizchip_init+0x3c>
 800161e:	1e6e      	subs	r6, r5, #1
 8001620:	4632      	mov	r2, r6
 8001622:	2300      	movs	r3, #0
 8001624:	3507      	adds	r5, #7
 8001626:	f812 1f01 	ldrb.w	r1, [r2, #1]!
 800162a:	440b      	add	r3, r1
 800162c:	42aa      	cmp	r2, r5
 800162e:	b25b      	sxtb	r3, r3
 8001630:	d1f9      	bne.n	8001626 <wizchip_init+0x14>
 8001632:	2b10      	cmp	r3, #16
 8001634:	dc27      	bgt.n	8001686 <wizchip_init+0x74>
 8001636:	f641 7508 	movw	r5, #7944	; 0x1f08
 800163a:	f242 0708 	movw	r7, #8200	; 0x2008
 800163e:	4628      	mov	r0, r5
 8001640:	f816 1f01 	ldrb.w	r1, [r6, #1]!
 8001644:	3520      	adds	r5, #32
 8001646:	f7ff fe69 	bl	800131c <WIZCHIP_WRITE>
 800164a:	42bd      	cmp	r5, r7
 800164c:	d1f7      	bne.n	800163e <wizchip_init+0x2c>
 800164e:	b90c      	cbnz	r4, 8001654 <wizchip_init+0x42>
 8001650:	2000      	movs	r0, #0
 8001652:	bdf8      	pop	{r3, r4, r5, r6, r7, pc}
 8001654:	1e65      	subs	r5, r4, #1
 8001656:	462a      	mov	r2, r5
 8001658:	2300      	movs	r3, #0
 800165a:	3407      	adds	r4, #7
 800165c:	f812 1f01 	ldrb.w	r1, [r2, #1]!
 8001660:	440b      	add	r3, r1
 8001662:	4294      	cmp	r4, r2
 8001664:	b25b      	sxtb	r3, r3
 8001666:	d1f9      	bne.n	800165c <wizchip_init+0x4a>
 8001668:	2b10      	cmp	r3, #16
 800166a:	dc0c      	bgt.n	8001686 <wizchip_init+0x74>
 800166c:	f641 6408 	movw	r4, #7688	; 0x1e08
 8001670:	f641 7608 	movw	r6, #7944	; 0x1f08
 8001674:	4620      	mov	r0, r4
 8001676:	f815 1f01 	ldrb.w	r1, [r5, #1]!
 800167a:	3420      	adds	r4, #32
 800167c:	f7ff fe4e 	bl	800131c <WIZCHIP_WRITE>
 8001680:	42b4      	cmp	r4, r6
 8001682:	d1f7      	bne.n	8001674 <wizchip_init+0x62>
 8001684:	e7e4      	b.n	8001650 <wizchip_init+0x3e>
 8001686:	f04f 30ff 	mov.w	r0, #4294967295
 800168a:	e7e2      	b.n	8001652 <wizchip_init+0x40>

0800168c <wizchip_clrinterrupt>:
 800168c:	b510      	push	{r4, lr}
 800168e:	4604      	mov	r4, r0
 8001690:	f000 01f0 	and.w	r1, r0, #240	; 0xf0
 8001694:	f44f 50a8 	mov.w	r0, #5376	; 0x1500
 8001698:	f7ff fe40 	bl	800131c <WIZCHIP_WRITE>
 800169c:	0a21      	lsrs	r1, r4, #8
 800169e:	f44f 50b8 	mov.w	r0, #5888	; 0x1700
 80016a2:	e8bd 4010 	ldmia.w	sp!, {r4, lr}
 80016a6:	f7ff be39 	b.w	800131c <WIZCHIP_WRITE>

080016aa <wizchip_getinterrupt>:
 80016aa:	b510      	push	{r4, lr}
 80016ac:	f44f 50a8 	mov.w	r0, #5376	; 0x1500
 80016b0:	f7ff fe16 	bl	80012e0 <WIZCHIP_READ>
 80016b4:	4604      	mov	r4, r0
 80016b6:	f44f 50b8 	mov.w	r0, #5888	; 0x1700
 80016ba:	f7ff fe11 	bl	80012e0 <WIZCHIP_READ>
 80016be:	0200      	lsls	r0, r0, #8
 80016c0:	f004 04f0 	and.w	r4, r4, #240	; 0xf0
 80016c4:	b280      	uxth	r0, r0
 80016c6:	4420      	add	r0, r4
 80016c8:	b280      	uxth	r0, r0
 80016ca:	bd10      	pop	{r4, pc}

080016cc <wizchip_setinterruptmask>:
 80016cc:	b510      	push	{r4, lr}
 80016ce:	4604      	mov	r4, r0
 80016d0:	b2c1      	uxtb	r1, r0
 80016d2:	f44f 50b0 	mov.w	r0, #5632	; 0x1600
 80016d6:	f7ff fe21 	bl	800131c <WIZCHIP_WRITE>
 80016da:	0a21      	lsrs	r1, r4, #8
 80016dc:	f44f 50c0 	mov.w	r0, #6144	; 0x1800
 80016e0:	e8bd 4010 	ldmia.w	sp!, {r4, lr}
 80016e4:	f7ff be1a 	b.w	800131c <WIZCHIP_WRITE>

080016e8 <wizchip_getinterruptmask>:
 80016e8:	b510      	push	{r4, lr}
 80016ea:	f44f 50b0 	mov.w	r0, #5632	; 0x1600
 80016ee:	f7ff fdf7 	bl	80012e0 <WIZCHIP_READ>
 80016f2:	4604      	mov	r4, r0
 80016f4:	f44f 50c0 	mov.w	r0, #6144	; 0x1800
 80016f8:	f7ff fdf2 	bl	80012e0 <WIZCHIP_READ>
 80016fc:	eb04 2000 	add.w	r0, r4, r0, lsl #8
 8001700:	b280      	uxth	r0, r0
 8001702:	bd10      	pop	{r4, pc}

08001704 <wizphy_getphylink>:
 8001704:	b508      	push	{r3, lr}
 8001706:	f44f 5038 	mov.w	r0, #11776	; 0x2e00
 800170a:	f7ff fde9 	bl	80012e0 <WIZCHIP_READ>
 800170e:	f000 0001 	and.w	r0, r0, #1
 8001712:	bd08      	pop	{r3, pc}

08001714 <wizphy_getphypmode>:
 8001714:	b508      	push	{r3, lr}
 8001716:	f44f 5038 	mov.w	r0, #11776	; 0x2e00
 800171a:	f7ff fde1 	bl	80012e0 <WIZCHIP_READ>
 800171e:	f010 0f30 	tst.w	r0, #48	; 0x30
 8001722:	bf14      	ite	ne
 8001724:	2001      	movne	r0, #1
 8001726:	2000      	moveq	r0, #0
 8001728:	bd08      	pop	{r3, pc}

0800172a <wizphy_reset>:
 800172a:	b508      	push	{r3, lr}
 800172c:	f44f 5038 	mov.w	r0, #11776	; 0x2e00
 8001730:	f7ff fdd6 	bl	80012e0 <WIZCHIP_READ>
 8001734:	f000 017f 	and.w	r1, r0, #127	; 0x7f
 8001738:	f44f 5038 	mov.w	r0, #11776	; 0x2e00
 800173c:	f7ff fdee 	bl	800131c <WIZCHIP_WRITE>
 8001740:	f44f 5038 	mov.w	r0, #11776	; 0x2e00
 8001744:	f7ff fdcc 	bl	80012e0 <WIZCHIP_READ>
 8001748:	e8bd 4008 	ldmia.w	sp!, {r3, lr}
 800174c:	f060 017f 	orn	r1, r0, #127	; 0x7f
 8001750:	b2c9      	uxtb	r1, r1
 8001752:	f44f 5038 	mov.w	r0, #11776	; 0x2e00
 8001756:	f7ff bde1 	b.w	800131c <WIZCHIP_WRITE>

0800175a <wizphy_setphyconf>:
 800175a:	b508      	push	{r3, lr}
 800175c:	7803      	ldrb	r3, [r0, #0]
 800175e:	2b01      	cmp	r3, #1
 8001760:	7843      	ldrb	r3, [r0, #1]
 8001762:	bf14      	ite	ne
 8001764:	2100      	movne	r1, #0
 8001766:	2140      	moveq	r1, #64	; 0x40
 8001768:	2b01      	cmp	r3, #1
 800176a:	d109      	bne.n	8001780 <wizphy_setphyconf+0x26>
 800176c:	f041 0138 	orr.w	r1, r1, #56	; 0x38
 8001770:	f44f 5038 	mov.w	r0, #11776	; 0x2e00
 8001774:	f7ff fdd2 	bl	800131c <WIZCHIP_WRITE>
 8001778:	e8bd 4008 	ldmia.w	sp!, {r3, lr}
 800177c:	f7ff bfd5 	b.w	800172a <wizphy_reset>
 8001780:	78c2      	ldrb	r2, [r0, #3]
 8001782:	7883      	ldrb	r3, [r0, #2]
 8001784:	2a01      	cmp	r2, #1
 8001786:	d106      	bne.n	8001796 <wizphy_setphyconf+0x3c>
 8001788:	2b01      	cmp	r3, #1
 800178a:	bf0c      	ite	eq
 800178c:	f041 0118 	orreq.w	r1, r1, #24
 8001790:	f041 0108 	orrne.w	r1, r1, #8
 8001794:	e7ec      	b.n	8001770 <wizphy_setphyconf+0x16>
 8001796:	2b01      	cmp	r3, #1
 8001798:	bf08      	it	eq
 800179a:	f041 0110 	orreq.w	r1, r1, #16
 800179e:	e7e7      	b.n	8001770 <wizphy_setphyconf+0x16>

080017a0 <wizphy_getphyconf>:
 80017a0:	b510      	push	{r4, lr}
 80017a2:	4604      	mov	r4, r0
 80017a4:	f44f 5038 	mov.w	r0, #11776	; 0x2e00
 80017a8:	f7ff fd9a 	bl	80012e0 <WIZCHIP_READ>
 80017ac:	f3c0 1380 	ubfx	r3, r0, #6, #1
 80017b0:	f000 0038 	and.w	r0, r0, #56	; 0x38
 80017b4:	2820      	cmp	r0, #32
 80017b6:	7023      	strb	r3, [r4, #0]
 80017b8:	d001      	beq.n	80017be <wizphy_getphyconf+0x1e>
 80017ba:	2838      	cmp	r0, #56	; 0x38
 80017bc:	d11d      	bne.n	80017fa <wizphy_getphyconf+0x5a>
 80017be:	2301      	movs	r3, #1
 80017c0:	7063      	strb	r3, [r4, #1]
 80017c2:	f1a0 0310 	sub.w	r3, r0, #16
 80017c6:	b2db      	uxtb	r3, r3
 80017c8:	2b10      	cmp	r3, #16
 80017ca:	d818      	bhi.n	80017fe <wizphy_getphyconf+0x5e>
 80017cc:	2201      	movs	r2, #1
 80017ce:	fa02 f303 	lsl.w	r3, r2, r3
 80017d2:	f003 3301 	and.w	r3, r3, #16843009	; 0x1010101
 80017d6:	f023 7380 	bic.w	r3, r3, #16777216	; 0x1000000
 80017da:	b183      	cbz	r3, 80017fe <wizphy_getphyconf+0x5e>
 80017dc:	70a2      	strb	r2, [r4, #2]
 80017de:	3808      	subs	r0, #8
 80017e0:	b2c0      	uxtb	r0, r0
 80017e2:	2818      	cmp	r0, #24
 80017e4:	d80e      	bhi.n	8001804 <wizphy_getphyconf+0x64>
 80017e6:	2301      	movs	r3, #1
 80017e8:	fa03 f000 	lsl.w	r0, r3, r0
 80017ec:	f000 3001 	and.w	r0, r0, #16843009	; 0x1010101
 80017f0:	f420 7080 	bic.w	r0, r0, #256	; 0x100
 80017f4:	b130      	cbz	r0, 8001804 <wizphy_getphyconf+0x64>
 80017f6:	70e3      	strb	r3, [r4, #3]
 80017f8:	bd10      	pop	{r4, pc}
 80017fa:	2300      	movs	r3, #0
 80017fc:	e7e0      	b.n	80017c0 <wizphy_getphyconf+0x20>
 80017fe:	2300      	movs	r3, #0
 8001800:	70a3      	strb	r3, [r4, #2]
 8001802:	e7ec      	b.n	80017de <wizphy_getphyconf+0x3e>
 8001804:	2300      	movs	r3, #0
 8001806:	e7f6      	b.n	80017f6 <wizphy_getphyconf+0x56>

08001808 <wizphy_setphypmode>:
 8001808:	b510      	push	{r4, lr}
 800180a:	4604      	mov	r4, r0
 800180c:	f44f 5038 	mov.w	r0, #11776	; 0x2e00
 8001810:	f7ff fd66 	bl	80012e0 <WIZCHIP_READ>
 8001814:	0643      	lsls	r3, r0, #25
 8001816:	d516      	bpl.n	8001846 <wizphy_setphypmode+0x3e>
 8001818:	f000 01c7 	and.w	r1, r0, #199	; 0xc7
 800181c:	2c01      	cmp	r4, #1
 800181e:	bf0c      	ite	eq
 8001820:	f041 0130 	orreq.w	r1, r1, #48	; 0x30
 8001824:	f041 0138 	orrne.w	r1, r1, #56	; 0x38
 8001828:	f44f 5038 	mov.w	r0, #11776	; 0x2e00
 800182c:	f7ff fd76 	bl	800131c <WIZCHIP_WRITE>
 8001830:	f7ff ff7b 	bl	800172a <wizphy_reset>
 8001834:	f44f 5038 	mov.w	r0, #11776	; 0x2e00
 8001838:	f7ff fd52 	bl	80012e0 <WIZCHIP_READ>
 800183c:	2c01      	cmp	r4, #1
 800183e:	d105      	bne.n	800184c <wizphy_setphypmode+0x44>
 8001840:	f010 0f30 	tst.w	r0, #48	; 0x30
 8001844:	d105      	bne.n	8001852 <wizphy_setphypmode+0x4a>
 8001846:	f04f 30ff 	mov.w	r0, #4294967295
 800184a:	bd10      	pop	{r4, pc}
 800184c:	f010 0f38 	tst.w	r0, #56	; 0x38
 8001850:	e7f8      	b.n	8001844 <wizphy_setphypmode+0x3c>
 8001852:	2000      	movs	r0, #0
 8001854:	e7f9      	b.n	800184a <wizphy_setphypmode+0x42>
	...

08001858 <ctlwizchip>:
 8001858:	b538      	push	{r3, r4, r5, lr}
 800185a:	460c      	mov	r4, r1
 800185c:	280f      	cmp	r0, #15
 800185e:	d863      	bhi.n	8001928 <ctlwizchip+0xd0>
 8001860:	e8df f000 	tbb	[pc, r0]
 8001864:	13170c08 	.word	0x13170c08
 8001868:	2e221f1b 	.word	0x2e221f1b
 800186c:	4f4b483a 	.word	0x4f4b483a
 8001870:	5f58530a 	.word	0x5f58530a
 8001874:	f7ff fe90 	bl	8001598 <wizchip_sw_reset>
 8001878:	2000      	movs	r0, #0
 800187a:	bd38      	pop	{r3, r4, r5, pc}
 800187c:	b101      	cbz	r1, 8001880 <ctlwizchip+0x28>
 800187e:	3108      	adds	r1, #8
 8001880:	4620      	mov	r0, r4
 8001882:	e8bd 4038 	ldmia.w	sp!, {r3, r4, r5, lr}
 8001886:	f7ff bec4 	b.w	8001612 <wizchip_init>
 800188a:	8808      	ldrh	r0, [r1, #0]
 800188c:	f7ff fefe 	bl	800168c <wizchip_clrinterrupt>
 8001890:	e7f2      	b.n	8001878 <ctlwizchip+0x20>
 8001892:	f7ff ff0a 	bl	80016aa <wizchip_getinterrupt>
 8001896:	8020      	strh	r0, [r4, #0]
 8001898:	e7ee      	b.n	8001878 <ctlwizchip+0x20>
 800189a:	8808      	ldrh	r0, [r1, #0]
 800189c:	f7ff ff16 	bl	80016cc <wizchip_setinterruptmask>
 80018a0:	e7ea      	b.n	8001878 <ctlwizchip+0x20>
 80018a2:	f7ff ff21 	bl	80016e8 <wizchip_getinterruptmask>
 80018a6:	e7f6      	b.n	8001896 <ctlwizchip+0x3e>
 80018a8:	8809      	ldrh	r1, [r1, #0]
 80018aa:	f44f 5098 	mov.w	r0, #4864	; 0x1300
 80018ae:	0a09      	lsrs	r1, r1, #8
 80018b0:	f7ff fd34 	bl	800131c <WIZCHIP_WRITE>
 80018b4:	7821      	ldrb	r1, [r4, #0]
 80018b6:	f44f 50a0 	mov.w	r0, #5120	; 0x1400
 80018ba:	f7ff fd2f 	bl	800131c <WIZCHIP_WRITE>
 80018be:	e7db      	b.n	8001878 <ctlwizchip+0x20>
 80018c0:	f44f 5098 	mov.w	r0, #4864	; 0x1300
 80018c4:	f7ff fd0c 	bl	80012e0 <WIZCHIP_READ>
 80018c8:	4605      	mov	r5, r0
 80018ca:	f44f 50a0 	mov.w	r0, #5120	; 0x1400
 80018ce:	f7ff fd07 	bl	80012e0 <WIZCHIP_READ>
 80018d2:	eb00 2005 	add.w	r0, r0, r5, lsl #8
 80018d6:	e7de      	b.n	8001896 <ctlwizchip+0x3e>
 80018d8:	2000      	movs	r0, #0
 80018da:	4b15      	ldr	r3, [pc, #84]	; (8001930 <ctlwizchip+0xd8>)
 80018dc:	789a      	ldrb	r2, [r3, #2]
 80018de:	700a      	strb	r2, [r1, #0]
 80018e0:	78da      	ldrb	r2, [r3, #3]
 80018e2:	704a      	strb	r2, [r1, #1]
 80018e4:	791a      	ldrb	r2, [r3, #4]
 80018e6:	708a      	strb	r2, [r1, #2]
 80018e8:	795a      	ldrb	r2, [r3, #5]
 80018ea:	70ca      	strb	r2, [r1, #3]
 80018ec:	799b      	ldrb	r3, [r3, #6]
 80018ee:	7148      	strb	r0, [r1, #5]
 80018f0:	710b      	strb	r3, [r1, #4]
 80018f2:	e7c2      	b.n	800187a <ctlwizchip+0x22>
 80018f4:	f7ff ff19 	bl	800172a <wizphy_reset>
 80018f8:	e7be      	b.n	8001878 <ctlwizchip+0x20>
 80018fa:	4608      	mov	r0, r1
 80018fc:	f7ff ff2d 	bl	800175a <wizphy_setphyconf>
 8001900:	e7ba      	b.n	8001878 <ctlwizchip+0x20>
 8001902:	4608      	mov	r0, r1
 8001904:	f7ff ff4c 	bl	80017a0 <wizphy_getphyconf>
 8001908:	e7b6      	b.n	8001878 <ctlwizchip+0x20>
 800190a:	7808      	ldrb	r0, [r1, #0]
 800190c:	e8bd 4038 	ldmia.w	sp!, {r3, r4, r5, lr}
 8001910:	f7ff bf7a 	b.w	8001808 <wizphy_setphypmode>
 8001914:	f7ff fefe 	bl	8001714 <wizphy_getphypmode>
 8001918:	b2c0      	uxtb	r0, r0
 800191a:	28ff      	cmp	r0, #255	; 0xff
 800191c:	d004      	beq.n	8001928 <ctlwizchip+0xd0>
 800191e:	7020      	strb	r0, [r4, #0]
 8001920:	e7aa      	b.n	8001878 <ctlwizchip+0x20>
 8001922:	f7ff feef 	bl	8001704 <wizphy_getphylink>
 8001926:	e7f7      	b.n	8001918 <ctlwizchip+0xc0>
 8001928:	f04f 30ff 	mov.w	r0, #4294967295
 800192c:	e7a5      	b.n	800187a <ctlwizchip+0x22>
 800192e:	bf00      	nop
 8001930:	20000020 	.word	0x20000020

08001934 <wizchip_setnetinfo>:
 8001934:	b510      	push	{r4, lr}
 8001936:	4604      	mov	r4, r0
 8001938:	4601      	mov	r1, r0
 800193a:	2206      	movs	r2, #6
 800193c:	f44f 6010 	mov.w	r0, #2304	; 0x900
 8001940:	f7ff fd32 	bl	80013a8 <WIZCHIP_WRITE_BUF>
 8001944:	2204      	movs	r2, #4
 8001946:	f104 010e 	add.w	r1, r4, #14
 800194a:	f44f 7080 	mov.w	r0, #256	; 0x100
 800194e:	f7ff fd2b 	bl	80013a8 <WIZCHIP_WRITE_BUF>
 8001952:	2204      	movs	r2, #4
 8001954:	f104 010a 	add.w	r1, r4, #10
 8001958:	f44f 60a0 	mov.w	r0, #1280	; 0x500
 800195c:	f7ff fd24 	bl	80013a8 <WIZCHIP_WRITE_BUF>
 8001960:	2204      	movs	r2, #4
 8001962:	1da1      	adds	r1, r4, #6
 8001964:	f44f 6070 	mov.w	r0, #3840	; 0xf00
 8001968:	f7ff fd1e 	bl	80013a8 <WIZCHIP_WRITE_BUF>
 800196c:	4b06      	ldr	r3, [pc, #24]	; (8001988 <wizchip_setnetinfo+0x54>)
 800196e:	7ca2      	ldrb	r2, [r4, #18]
 8001970:	701a      	strb	r2, [r3, #0]
 8001972:	7ce2      	ldrb	r2, [r4, #19]
 8001974:	705a      	strb	r2, [r3, #1]
 8001976:	7d22      	ldrb	r2, [r4, #20]
 8001978:	709a      	strb	r2, [r3, #2]
 800197a:	7d62      	ldrb	r2, [r4, #21]
 800197c:	70da      	strb	r2, [r3, #3]
 800197e:	7da2      	ldrb	r2, [r4, #22]
 8001980:	4b02      	ldr	r3, [pc, #8]	; (800198c <wizchip_setnetinfo+0x58>)
 8001982:	701a      	strb	r2, [r3, #0]
 8001984:	bd10      	pop	{r4, pc}
 8001986:	bf00      	nop
 8001988:	20000099 	.word	0x20000099
 800198c:	20000098 	.word	0x20000098

08001990 <wizchip_getnetinfo>:
 8001990:	b510      	push	{r4, lr}
 8001992:	4604      	mov	r4, r0
 8001994:	4601      	mov	r1, r0
 8001996:	2206      	movs	r2, #6
 8001998:	f44f 6010 	mov.w	r0, #2304	; 0x900
 800199c:	f7ff fcde 	bl	800135c <WIZCHIP_READ_BUF>
 80019a0:	2204      	movs	r2, #4
 80019a2:	f104 010e 	add.w	r1, r4, #14
 80019a6:	f44f 7080 	mov.w	r0, #256	; 0x100
 80019aa:	f7ff fcd7 	bl	800135c <WIZCHIP_READ_BUF>
 80019ae:	2204      	movs	r2, #4
 80019b0:	f104 010a 	add.w	r1, r4, #10
 80019b4:	f44f 60a0 	mov.w	r0, #1280	; 0x500
 80019b8:	f7ff fcd0 	bl	800135c <WIZCHIP_READ_BUF>
 80019bc:	2204      	movs	r2, #4
 80019be:	1da1      	adds	r1, r4, #6
 80019c0:	f44f 6070 	mov.w	r0, #3840	; 0xf00
 80019c4:	f7ff fcca 	bl	800135c <WIZCHIP_READ_BUF>
 80019c8:	4b06      	ldr	r3, [pc, #24]	; (80019e4 <wizchip_getnetinfo+0x54>)
 80019ca:	781a      	ldrb	r2, [r3, #0]
 80019cc:	74a2      	strb	r2, [r4, #18]
 80019ce:	785a      	ldrb	r2, [r3, #1]
 80019d0:	74e2      	strb	r2, [r4, #19]
 80019d2:	789a      	ldrb	r2, [r3, #2]
 80019d4:	78db      	ldrb	r3, [r3, #3]
 80019d6:	7522      	strb	r2, [r4, #20]
 80019d8:	7563      	strb	r3, [r4, #21]
 80019da:	4b03      	ldr	r3, [pc, #12]	; (80019e8 <wizchip_getnetinfo+0x58>)
 80019dc:	781b      	ldrb	r3, [r3, #0]
 80019de:	75a3      	strb	r3, [r4, #22]
 80019e0:	bd10      	pop	{r4, pc}
 80019e2:	bf00      	nop
 80019e4:	20000099 	.word	0x20000099
 80019e8:	20000098 	.word	0x20000098

080019ec <wizchip_setnetmode>:
 80019ec:	b538      	push	{r3, r4, r5, lr}
 80019ee:	f030 043a 	bics.w	r4, r0, #58	; 0x3a
 80019f2:	4605      	mov	r5, r0
 80019f4:	d10a      	bne.n	8001a0c <wizchip_setnetmode+0x20>
 80019f6:	4620      	mov	r0, r4
 80019f8:	f7ff fc72 	bl	80012e0 <WIZCHIP_READ>
 80019fc:	ea45 0100 	orr.w	r1, r5, r0
 8001a00:	b2c9      	uxtb	r1, r1
 8001a02:	4620      	mov	r0, r4
 8001a04:	f7ff fc8a 	bl	800131c <WIZCHIP_WRITE>
 8001a08:	4620      	mov	r0, r4
 8001a0a:	bd38      	pop	{r3, r4, r5, pc}
 8001a0c:	f04f 30ff 	mov.w	r0, #4294967295
 8001a10:	e7fb      	b.n	8001a0a <wizchip_setnetmode+0x1e>

08001a12 <wizchip_getnetmode>:
 8001a12:	2000      	movs	r0, #0
 8001a14:	f7ff bc64 	b.w	80012e0 <WIZCHIP_READ>

08001a18 <wizchip_settimeout>:
 8001a18:	b510      	push	{r4, lr}
 8001a1a:	4604      	mov	r4, r0
 8001a1c:	7801      	ldrb	r1, [r0, #0]
 8001a1e:	f44f 50d8 	mov.w	r0, #6912	; 0x1b00
 8001a22:	f7ff fc7b 	bl	800131c <WIZCHIP_WRITE>
 8001a26:	8861      	ldrh	r1, [r4, #2]
 8001a28:	f44f 50c8 	mov.w	r0, #6400	; 0x1900
 8001a2c:	0a09      	lsrs	r1, r1, #8
 8001a2e:	f7ff fc75 	bl	800131c <WIZCHIP_WRITE>
 8001a32:	78a1      	ldrb	r1, [r4, #2]
 8001a34:	f44f 50d0 	mov.w	r0, #6656	; 0x1a00
 8001a38:	e8bd 4010 	ldmia.w	sp!, {r4, lr}
 8001a3c:	f7ff bc6e 	b.w	800131c <WIZCHIP_WRITE>

08001a40 <wizchip_gettimeout>:
 8001a40:	b538      	push	{r3, r4, r5, lr}
 8001a42:	4605      	mov	r5, r0
 8001a44:	f44f 50d8 	mov.w	r0, #6912	; 0x1b00
 8001a48:	f7ff fc4a 	bl	80012e0 <WIZCHIP_READ>
 8001a4c:	7028      	strb	r0, [r5, #0]
 8001a4e:	f44f 50c8 	mov.w	r0, #6400	; 0x1900
 8001a52:	f7ff fc45 	bl	80012e0 <WIZCHIP_READ>
 8001a56:	4604      	mov	r4, r0
 8001a58:	f44f 50d0 	mov.w	r0, #6656	; 0x1a00
 8001a5c:	f7ff fc40 	bl	80012e0 <WIZCHIP_READ>
 8001a60:	eb00 2004 	add.w	r0, r0, r4, lsl #8
 8001a64:	8068      	strh	r0, [r5, #2]
 8001a66:	bd38      	pop	{r3, r4, r5, pc}

08001a68 <ctlnetwork>:
 8001a68:	b510      	push	{r4, lr}
 8001a6a:	460c      	mov	r4, r1
 8001a6c:	2805      	cmp	r0, #5
 8001a6e:	d81e      	bhi.n	8001aae <ctlnetwork+0x46>
 8001a70:	e8df f000 	tbb	[pc, r0]
 8001a74:	110c0803 	.word	0x110c0803
 8001a78:	1915      	.short	0x1915
 8001a7a:	4608      	mov	r0, r1
 8001a7c:	f7ff ff5a 	bl	8001934 <wizchip_setnetinfo>
 8001a80:	2000      	movs	r0, #0
 8001a82:	bd10      	pop	{r4, pc}
 8001a84:	4608      	mov	r0, r1
 8001a86:	f7ff ff83 	bl	8001990 <wizchip_getnetinfo>
 8001a8a:	e7f9      	b.n	8001a80 <ctlnetwork+0x18>
 8001a8c:	7808      	ldrb	r0, [r1, #0]
 8001a8e:	e8bd 4010 	ldmia.w	sp!, {r4, lr}
 8001a92:	f7ff bfab 	b.w	80019ec <wizchip_setnetmode>
 8001a96:	f7ff ffbc 	bl	8001a12 <wizchip_getnetmode>
 8001a9a:	7020      	strb	r0, [r4, #0]
 8001a9c:	e7f0      	b.n	8001a80 <ctlnetwork+0x18>
 8001a9e:	4608      	mov	r0, r1
 8001aa0:	f7ff ffba 	bl	8001a18 <wizchip_settimeout>
 8001aa4:	e7ec      	b.n	8001a80 <ctlnetwork+0x18>
 8001aa6:	4608      	mov	r0, r1
 8001aa8:	f7ff ffca 	bl	8001a40 <wizchip_gettimeout>
 8001aac:	e7e8      	b.n	8001a80 <ctlnetwork+0x18>
 8001aae:	f04f 30ff 	mov.w	r0, #4294967295
 8001ab2:	e7e6      	b.n	8001a82 <ctlnetwork+0x1a>

08001ab4 <HAL_Init>:
 8001ab4:	4a07      	ldr	r2, [pc, #28]	; (8001ad4 <HAL_Init+0x20>)
 8001ab6:	b508      	push	{r3, lr}
 8001ab8:	6813      	ldr	r3, [r2, #0]
 8001aba:	2003      	movs	r0, #3
 8001abc:	f043 0310 	orr.w	r3, r3, #16
 8001ac0:	6013      	str	r3, [r2, #0]
 8001ac2:	f000 f81b 	bl	8001afc <HAL_NVIC_SetPriorityGrouping>
 8001ac6:	2000      	movs	r0, #0
 8001ac8:	f7ff f964 	bl	8000d94 <HAL_InitTick>
 8001acc:	f7ff f8cc 	bl	8000c68 <HAL_MspInit>
 8001ad0:	2000      	movs	r0, #0
 8001ad2:	bd08      	pop	{r3, pc}
 8001ad4:	40022000 	.word	0x40022000

08001ad8 <HAL_IncTick>:
 8001ad8:	4a03      	ldr	r2, [pc, #12]	; (8001ae8 <HAL_IncTick+0x10>)
 8001ada:	4b04      	ldr	r3, [pc, #16]	; (8001aec <HAL_IncTick+0x14>)
 8001adc:	6811      	ldr	r1, [r2, #0]
 8001ade:	781b      	ldrb	r3, [r3, #0]
 8001ae0:	440b      	add	r3, r1
 8001ae2:	6013      	str	r3, [r2, #0]
 8001ae4:	4770      	bx	lr
 8001ae6:	bf00      	nop
 8001ae8:	20002dcc 	.word	0x20002dcc
 8001aec:	20000040 	.word	0x20000040

08001af0 <HAL_GetTick>:
 8001af0:	4b01      	ldr	r3, [pc, #4]	; (8001af8 <HAL_GetTick+0x8>)
 8001af2:	6818      	ldr	r0, [r3, #0]
 8001af4:	4770      	bx	lr
 8001af6:	bf00      	nop
 8001af8:	20002dcc 	.word	0x20002dcc

08001afc <HAL_NVIC_SetPriorityGrouping>:
 8001afc:	4a07      	ldr	r2, [pc, #28]	; (8001b1c <HAL_NVIC_SetPriorityGrouping+0x20>)
 8001afe:	0200      	lsls	r0, r0, #8
 8001b00:	68d3      	ldr	r3, [r2, #12]
 8001b02:	f400 60e0 	and.w	r0, r0, #1792	; 0x700
 8001b06:	f423 63e0 	bic.w	r3, r3, #1792	; 0x700
 8001b0a:	041b      	lsls	r3, r3, #16
 8001b0c:	0c1b      	lsrs	r3, r3, #16
 8001b0e:	f043 63bf 	orr.w	r3, r3, #100139008	; 0x5f80000
 8001b12:	f443 3300 	orr.w	r3, r3, #131072	; 0x20000
 8001b16:	4303      	orrs	r3, r0
 8001b18:	60d3      	str	r3, [r2, #12]
 8001b1a:	4770      	bx	lr
 8001b1c:	e000ed00 	.word	0xe000ed00

08001b20 <HAL_NVIC_SetPriority>:
 8001b20:	4b17      	ldr	r3, [pc, #92]	; (8001b80 <HAL_NVIC_SetPriority+0x60>)
 8001b22:	b570      	push	{r4, r5, r6, lr}
 8001b24:	68dc      	ldr	r4, [r3, #12]
 8001b26:	f04f 36ff 	mov.w	r6, #4294967295
 8001b2a:	f3c4 2402 	ubfx	r4, r4, #8, #3
 8001b2e:	f1c4 0507 	rsb	r5, r4, #7
 8001b32:	2d04      	cmp	r5, #4
 8001b34:	f104 0304 	add.w	r3, r4, #4
 8001b38:	bf28      	it	cs
 8001b3a:	2504      	movcs	r5, #4
 8001b3c:	2b06      	cmp	r3, #6
 8001b3e:	bf98      	it	ls
 8001b40:	2400      	movls	r4, #0
 8001b42:	fa06 f305 	lsl.w	r3, r6, r5
 8001b46:	bf88      	it	hi
 8001b48:	3c03      	subhi	r4, #3
 8001b4a:	ea21 0303 	bic.w	r3, r1, r3
 8001b4e:	40a3      	lsls	r3, r4
 8001b50:	fa06 f404 	lsl.w	r4, r6, r4
 8001b54:	ea22 0404 	bic.w	r4, r2, r4
 8001b58:	2800      	cmp	r0, #0
 8001b5a:	ea43 0304 	orr.w	r3, r3, r4
 8001b5e:	bfa8      	it	ge
 8001b60:	f100 4060 	addge.w	r0, r0, #3758096384	; 0xe0000000
 8001b64:	ea4f 1303 	mov.w	r3, r3, lsl #4
 8001b68:	bfb8      	it	lt
 8001b6a:	4a06      	ldrlt	r2, [pc, #24]	; (8001b84 <HAL_NVIC_SetPriority+0x64>)
 8001b6c:	b2db      	uxtb	r3, r3
 8001b6e:	bfab      	itete	ge
 8001b70:	f500 4061 	addge.w	r0, r0, #57600	; 0xe100
 8001b74:	f000 000f 	andlt.w	r0, r0, #15
 8001b78:	f880 3300 	strbge.w	r3, [r0, #768]	; 0x300
 8001b7c:	5413      	strblt	r3, [r2, r0]
 8001b7e:	bd70      	pop	{r4, r5, r6, pc}
 8001b80:	e000ed00 	.word	0xe000ed00
 8001b84:	e000ed14 	.word	0xe000ed14

08001b88 <HAL_NVIC_EnableIRQ>:
 8001b88:	2800      	cmp	r0, #0
 8001b8a:	db08      	blt.n	8001b9e <HAL_NVIC_EnableIRQ+0x16>
 8001b8c:	2301      	movs	r3, #1
 8001b8e:	0942      	lsrs	r2, r0, #5
 8001b90:	f000 001f 	and.w	r0, r0, #31
 8001b94:	fa03 f000 	lsl.w	r0, r3, r0
 8001b98:	4b01      	ldr	r3, [pc, #4]	; (8001ba0 <HAL_NVIC_EnableIRQ+0x18>)
 8001b9a:	f843 0022 	str.w	r0, [r3, r2, lsl #2]
 8001b9e:	4770      	bx	lr
 8001ba0:	e000e100 	.word	0xe000e100

08001ba4 <FLASH_SetErrorCode>:
 8001ba4:	4a11      	ldr	r2, [pc, #68]	; (8001bec <FLASH_SetErrorCode+0x48>)
 8001ba6:	68d3      	ldr	r3, [r2, #12]
 8001ba8:	f013 0310 	ands.w	r3, r3, #16
 8001bac:	d005      	beq.n	8001bba <FLASH_SetErrorCode+0x16>
 8001bae:	4910      	ldr	r1, [pc, #64]	; (8001bf0 <FLASH_SetErrorCode+0x4c>)
 8001bb0:	69cb      	ldr	r3, [r1, #28]
 8001bb2:	f043 0302 	orr.w	r3, r3, #2
 8001bb6:	61cb      	str	r3, [r1, #28]
 8001bb8:	2310      	movs	r3, #16
 8001bba:	68d2      	ldr	r2, [r2, #12]
 8001bbc:	0750      	lsls	r0, r2, #29
 8001bbe:	d506      	bpl.n	8001bce <FLASH_SetErrorCode+0x2a>
 8001bc0:	490b      	ldr	r1, [pc, #44]	; (8001bf0 <FLASH_SetErrorCode+0x4c>)
 8001bc2:	f043 0304 	orr.w	r3, r3, #4
 8001bc6:	69ca      	ldr	r2, [r1, #28]
 8001bc8:	f042 0201 	orr.w	r2, r2, #1
 8001bcc:	61ca      	str	r2, [r1, #28]
 8001bce:	4a07      	ldr	r2, [pc, #28]	; (8001bec <FLASH_SetErrorCode+0x48>)
 8001bd0:	69d1      	ldr	r1, [r2, #28]
 8001bd2:	07c9      	lsls	r1, r1, #31
 8001bd4:	d508      	bpl.n	8001be8 <FLASH_SetErrorCode+0x44>
 8001bd6:	4806      	ldr	r0, [pc, #24]	; (8001bf0 <FLASH_SetErrorCode+0x4c>)
 8001bd8:	69c1      	ldr	r1, [r0, #28]
 8001bda:	f041 0104 	orr.w	r1, r1, #4
 8001bde:	61c1      	str	r1, [r0, #28]
 8001be0:	69d1      	ldr	r1, [r2, #28]
 8001be2:	f021 0101 	bic.w	r1, r1, #1
 8001be6:	61d1      	str	r1, [r2, #28]
 8001be8:	60d3      	str	r3, [r2, #12]
 8001bea:	4770      	bx	lr
 8001bec:	40022000 	.word	0x40022000
 8001bf0:	20002dd0 	.word	0x20002dd0

08001bf4 <HAL_FLASH_Unlock>:
 8001bf4:	4b06      	ldr	r3, [pc, #24]	; (8001c10 <HAL_FLASH_Unlock+0x1c>)
 8001bf6:	6918      	ldr	r0, [r3, #16]
 8001bf8:	f010 0080 	ands.w	r0, r0, #128	; 0x80
 8001bfc:	d007      	beq.n	8001c0e <HAL_FLASH_Unlock+0x1a>
 8001bfe:	4a05      	ldr	r2, [pc, #20]	; (8001c14 <HAL_FLASH_Unlock+0x20>)
 8001c00:	605a      	str	r2, [r3, #4]
 8001c02:	f102 3288 	add.w	r2, r2, #2290649224	; 0x88888888
 8001c06:	605a      	str	r2, [r3, #4]
 8001c08:	6918      	ldr	r0, [r3, #16]
 8001c0a:	f3c0 10c0 	ubfx	r0, r0, #7, #1
 8001c0e:	4770      	bx	lr
 8001c10:	40022000 	.word	0x40022000
 8001c14:	45670123 	.word	0x45670123

08001c18 <HAL_FLASH_Lock>:
 8001c18:	4a03      	ldr	r2, [pc, #12]	; (8001c28 <HAL_FLASH_Lock+0x10>)
 8001c1a:	2000      	movs	r0, #0
 8001c1c:	6913      	ldr	r3, [r2, #16]
 8001c1e:	f043 0380 	orr.w	r3, r3, #128	; 0x80
 8001c22:	6113      	str	r3, [r2, #16]
 8001c24:	4770      	bx	lr
 8001c26:	bf00      	nop
 8001c28:	40022000 	.word	0x40022000

08001c2c <HAL_FLASH_OB_Unlock>:
 8001c2c:	4b06      	ldr	r3, [pc, #24]	; (8001c48 <HAL_FLASH_OB_Unlock+0x1c>)
 8001c2e:	6918      	ldr	r0, [r3, #16]
 8001c30:	f410 7000 	ands.w	r0, r0, #512	; 0x200
 8001c34:	bf09      	itett	eq
 8001c36:	4a05      	ldreq	r2, [pc, #20]	; (8001c4c <HAL_FLASH_OB_Unlock+0x20>)
 8001c38:	2001      	movne	r0, #1
 8001c3a:	609a      	streq	r2, [r3, #8]
 8001c3c:	f102 3288 	addeq.w	r2, r2, #2290649224	; 0x88888888
 8001c40:	bf08      	it	eq
 8001c42:	609a      	streq	r2, [r3, #8]
 8001c44:	4770      	bx	lr
 8001c46:	bf00      	nop
 8001c48:	40022000 	.word	0x40022000
 8001c4c:	45670123 	.word	0x45670123

08001c50 <HAL_FLASH_OB_Lock>:
 8001c50:	4a03      	ldr	r2, [pc, #12]	; (8001c60 <HAL_FLASH_OB_Lock+0x10>)
 8001c52:	2000      	movs	r0, #0
 8001c54:	6913      	ldr	r3, [r2, #16]
 8001c56:	f423 7300 	bic.w	r3, r3, #512	; 0x200
 8001c5a:	6113      	str	r3, [r2, #16]
 8001c5c:	4770      	bx	lr
 8001c5e:	bf00      	nop
 8001c60:	40022000 	.word	0x40022000

08001c64 <FLASH_WaitForLastOperation>:
 8001c64:	b5f8      	push	{r3, r4, r5, r6, r7, lr}
 8001c66:	4606      	mov	r6, r0
 8001c68:	f7ff ff42 	bl	8001af0 <HAL_GetTick>
 8001c6c:	4c11      	ldr	r4, [pc, #68]	; (8001cb4 <FLASH_WaitForLastOperation+0x50>)
 8001c6e:	4607      	mov	r7, r0
 8001c70:	4625      	mov	r5, r4
 8001c72:	68e3      	ldr	r3, [r4, #12]
 8001c74:	07d8      	lsls	r0, r3, #31
 8001c76:	d412      	bmi.n	8001c9e <FLASH_WaitForLastOperation+0x3a>
 8001c78:	68e3      	ldr	r3, [r4, #12]
 8001c7a:	0699      	lsls	r1, r3, #26
 8001c7c:	bf44      	itt	mi
 8001c7e:	2320      	movmi	r3, #32
 8001c80:	60e3      	strmi	r3, [r4, #12]
 8001c82:	68eb      	ldr	r3, [r5, #12]
 8001c84:	06da      	lsls	r2, r3, #27
 8001c86:	d406      	bmi.n	8001c96 <FLASH_WaitForLastOperation+0x32>
 8001c88:	69eb      	ldr	r3, [r5, #28]
 8001c8a:	07db      	lsls	r3, r3, #31
 8001c8c:	d403      	bmi.n	8001c96 <FLASH_WaitForLastOperation+0x32>
 8001c8e:	68e8      	ldr	r0, [r5, #12]
 8001c90:	f010 0004 	ands.w	r0, r0, #4
 8001c94:	d007      	beq.n	8001ca6 <FLASH_WaitForLastOperation+0x42>
 8001c96:	f7ff ff85 	bl	8001ba4 <FLASH_SetErrorCode>
 8001c9a:	2001      	movs	r0, #1
 8001c9c:	e003      	b.n	8001ca6 <FLASH_WaitForLastOperation+0x42>
 8001c9e:	1c73      	adds	r3, r6, #1
 8001ca0:	d0e7      	beq.n	8001c72 <FLASH_WaitForLastOperation+0xe>
 8001ca2:	b90e      	cbnz	r6, 8001ca8 <FLASH_WaitForLastOperation+0x44>
 8001ca4:	2003      	movs	r0, #3
 8001ca6:	bdf8      	pop	{r3, r4, r5, r6, r7, pc}
 8001ca8:	f7ff ff22 	bl	8001af0 <HAL_GetTick>
 8001cac:	1bc0      	subs	r0, r0, r7
 8001cae:	42b0      	cmp	r0, r6
 8001cb0:	d9df      	bls.n	8001c72 <FLASH_WaitForLastOperation+0xe>
 8001cb2:	e7f7      	b.n	8001ca4 <FLASH_WaitForLastOperation+0x40>
 8001cb4:	40022000 	.word	0x40022000

08001cb8 <HAL_FLASH_Program>:
 8001cb8:	e92d 4ff8 	stmdb	sp!, {r3, r4, r5, r6, r7, r8, r9, sl, fp, lr}
 8001cbc:	4c24      	ldr	r4, [pc, #144]	; (8001d50 <HAL_FLASH_Program+0x98>)
 8001cbe:	461e      	mov	r6, r3
 8001cc0:	7e23      	ldrb	r3, [r4, #24]
 8001cc2:	4605      	mov	r5, r0
 8001cc4:	2b01      	cmp	r3, #1
 8001cc6:	460f      	mov	r7, r1
 8001cc8:	4690      	mov	r8, r2
 8001cca:	d03f      	beq.n	8001d4c <HAL_FLASH_Program+0x94>
 8001ccc:	2301      	movs	r3, #1
 8001cce:	f24c 3050 	movw	r0, #50000	; 0xc350
 8001cd2:	7623      	strb	r3, [r4, #24]
 8001cd4:	f7ff ffc6 	bl	8001c64 <FLASH_WaitForLastOperation>
 8001cd8:	bba0      	cbnz	r0, 8001d44 <HAL_FLASH_Program+0x8c>
 8001cda:	2d01      	cmp	r5, #1
 8001cdc:	d003      	beq.n	8001ce6 <HAL_FLASH_Program+0x2e>
 8001cde:	2d02      	cmp	r5, #2
 8001ce0:	bf0c      	ite	eq
 8001ce2:	2502      	moveq	r5, #2
 8001ce4:	2504      	movne	r5, #4
 8001ce6:	f04f 0900 	mov.w	r9, #0
 8001cea:	46cb      	mov	fp, r9
 8001cec:	f8df a064 	ldr.w	sl, [pc, #100]	; 8001d54 <HAL_FLASH_Program+0x9c>
 8001cf0:	ea4f 1309 	mov.w	r3, r9, lsl #4
 8001cf4:	f1c3 0120 	rsb	r1, r3, #32
 8001cf8:	f1a3 0220 	sub.w	r2, r3, #32
 8001cfc:	fa06 f101 	lsl.w	r1, r6, r1
 8001d00:	fa28 f303 	lsr.w	r3, r8, r3
 8001d04:	f8c4 b01c 	str.w	fp, [r4, #28]
 8001d08:	430b      	orrs	r3, r1
 8001d0a:	fa26 f202 	lsr.w	r2, r6, r2
 8001d0e:	4313      	orrs	r3, r2
 8001d10:	f8da 2010 	ldr.w	r2, [sl, #16]
 8001d14:	b29b      	uxth	r3, r3
 8001d16:	f042 0201 	orr.w	r2, r2, #1
 8001d1a:	f8ca 2010 	str.w	r2, [sl, #16]
 8001d1e:	f24c 3050 	movw	r0, #50000	; 0xc350
 8001d22:	f827 3019 	strh.w	r3, [r7, r9, lsl #1]
 8001d26:	f7ff ff9d 	bl	8001c64 <FLASH_WaitForLastOperation>
 8001d2a:	f8da 3010 	ldr.w	r3, [sl, #16]
 8001d2e:	f023 0301 	bic.w	r3, r3, #1
 8001d32:	f8ca 3010 	str.w	r3, [sl, #16]
 8001d36:	b928      	cbnz	r0, 8001d44 <HAL_FLASH_Program+0x8c>
 8001d38:	f109 0901 	add.w	r9, r9, #1
 8001d3c:	fa5f f389 	uxtb.w	r3, r9
 8001d40:	429d      	cmp	r5, r3
 8001d42:	d8d5      	bhi.n	8001cf0 <HAL_FLASH_Program+0x38>
 8001d44:	2300      	movs	r3, #0
 8001d46:	7623      	strb	r3, [r4, #24]
 8001d48:	e8bd 8ff8 	ldmia.w	sp!, {r3, r4, r5, r6, r7, r8, r9, sl, fp, pc}
 8001d4c:	2002      	movs	r0, #2
 8001d4e:	e7fb      	b.n	8001d48 <HAL_FLASH_Program+0x90>
 8001d50:	20002dd0 	.word	0x20002dd0
 8001d54:	40022000 	.word	0x40022000

08001d58 <FLASH_MassErase.isra.0>:
 8001d58:	2200      	movs	r2, #0
 8001d5a:	4b06      	ldr	r3, [pc, #24]	; (8001d74 <FLASH_MassErase.isra.0+0x1c>)
 8001d5c:	61da      	str	r2, [r3, #28]
 8001d5e:	4b06      	ldr	r3, [pc, #24]	; (8001d78 <FLASH_MassErase.isra.0+0x20>)
 8001d60:	691a      	ldr	r2, [r3, #16]
 8001d62:	f042 0204 	orr.w	r2, r2, #4
 8001d66:	611a      	str	r2, [r3, #16]
 8001d68:	691a      	ldr	r2, [r3, #16]
 8001d6a:	f042 0240 	orr.w	r2, r2, #64	; 0x40
 8001d6e:	611a      	str	r2, [r3, #16]
 8001d70:	4770      	bx	lr
 8001d72:	bf00      	nop
 8001d74:	20002dd0 	.word	0x20002dd0
 8001d78:	40022000 	.word	0x40022000

08001d7c <FLASH_PageErase>:
 8001d7c:	2200      	movs	r2, #0
 8001d7e:	4b06      	ldr	r3, [pc, #24]	; (8001d98 <FLASH_PageErase+0x1c>)
 8001d80:	61da      	str	r2, [r3, #28]
 8001d82:	4b06      	ldr	r3, [pc, #24]	; (8001d9c <FLASH_PageErase+0x20>)
 8001d84:	691a      	ldr	r2, [r3, #16]
 8001d86:	f042 0202 	orr.w	r2, r2, #2
 8001d8a:	611a      	str	r2, [r3, #16]
 8001d8c:	6158      	str	r0, [r3, #20]
 8001d8e:	691a      	ldr	r2, [r3, #16]
 8001d90:	f042 0240 	orr.w	r2, r2, #64	; 0x40
 8001d94:	611a      	str	r2, [r3, #16]
 8001d96:	4770      	bx	lr
 8001d98:	20002dd0 	.word	0x20002dd0
 8001d9c:	40022000 	.word	0x40022000

08001da0 <HAL_FLASHEx_Erase>:
 8001da0:	e92d 41f0 	stmdb	sp!, {r4, r5, r6, r7, r8, lr}
 8001da4:	4d22      	ldr	r5, [pc, #136]	; (8001e30 <HAL_FLASHEx_Erase+0x90>)
 8001da6:	4607      	mov	r7, r0
 8001da8:	7e2b      	ldrb	r3, [r5, #24]
 8001daa:	4688      	mov	r8, r1
 8001dac:	2b01      	cmp	r3, #1
 8001dae:	d03d      	beq.n	8001e2c <HAL_FLASHEx_Erase+0x8c>
 8001db0:	2401      	movs	r4, #1
 8001db2:	6803      	ldr	r3, [r0, #0]
 8001db4:	762c      	strb	r4, [r5, #24]
 8001db6:	2b02      	cmp	r3, #2
 8001db8:	f24c 3050 	movw	r0, #50000	; 0xc350
 8001dbc:	d113      	bne.n	8001de6 <HAL_FLASHEx_Erase+0x46>
 8001dbe:	f7ff ff51 	bl	8001c64 <FLASH_WaitForLastOperation>
 8001dc2:	b120      	cbz	r0, 8001dce <HAL_FLASHEx_Erase+0x2e>
 8001dc4:	2001      	movs	r0, #1
 8001dc6:	2300      	movs	r3, #0
 8001dc8:	762b      	strb	r3, [r5, #24]
 8001dca:	e8bd 81f0 	ldmia.w	sp!, {r4, r5, r6, r7, r8, pc}
 8001dce:	f7ff ffc3 	bl	8001d58 <FLASH_MassErase.isra.0>
 8001dd2:	f24c 3050 	movw	r0, #50000	; 0xc350
 8001dd6:	f7ff ff45 	bl	8001c64 <FLASH_WaitForLastOperation>
 8001dda:	4a16      	ldr	r2, [pc, #88]	; (8001e34 <HAL_FLASHEx_Erase+0x94>)
 8001ddc:	6913      	ldr	r3, [r2, #16]
 8001dde:	f023 0304 	bic.w	r3, r3, #4
 8001de2:	6113      	str	r3, [r2, #16]
 8001de4:	e7ef      	b.n	8001dc6 <HAL_FLASHEx_Erase+0x26>
 8001de6:	f7ff ff3d 	bl	8001c64 <FLASH_WaitForLastOperation>
 8001dea:	2800      	cmp	r0, #0
 8001dec:	d1ea      	bne.n	8001dc4 <HAL_FLASHEx_Erase+0x24>
 8001dee:	f04f 33ff 	mov.w	r3, #4294967295
 8001df2:	f8c8 3000 	str.w	r3, [r8]
 8001df6:	4620      	mov	r0, r4
 8001df8:	68be      	ldr	r6, [r7, #8]
 8001dfa:	4c0e      	ldr	r4, [pc, #56]	; (8001e34 <HAL_FLASHEx_Erase+0x94>)
 8001dfc:	e9d7 3202 	ldrd	r3, r2, [r7, #8]
 8001e00:	eb03 2382 	add.w	r3, r3, r2, lsl #10
 8001e04:	42b3      	cmp	r3, r6
 8001e06:	d9de      	bls.n	8001dc6 <HAL_FLASHEx_Erase+0x26>
 8001e08:	4630      	mov	r0, r6
 8001e0a:	f7ff ffb7 	bl	8001d7c <FLASH_PageErase>
 8001e0e:	f24c 3050 	movw	r0, #50000	; 0xc350
 8001e12:	f7ff ff27 	bl	8001c64 <FLASH_WaitForLastOperation>
 8001e16:	6923      	ldr	r3, [r4, #16]
 8001e18:	f023 0302 	bic.w	r3, r3, #2
 8001e1c:	6123      	str	r3, [r4, #16]
 8001e1e:	b110      	cbz	r0, 8001e26 <HAL_FLASHEx_Erase+0x86>
 8001e20:	f8c8 6000 	str.w	r6, [r8]
 8001e24:	e7cf      	b.n	8001dc6 <HAL_FLASHEx_Erase+0x26>
 8001e26:	f506 6680 	add.w	r6, r6, #1024	; 0x400
 8001e2a:	e7e7      	b.n	8001dfc <HAL_FLASHEx_Erase+0x5c>
 8001e2c:	2002      	movs	r0, #2
 8001e2e:	e7cc      	b.n	8001dca <HAL_FLASHEx_Erase+0x2a>
 8001e30:	20002dd0 	.word	0x20002dd0
 8001e34:	40022000 	.word	0x40022000

08001e38 <HAL_GPIO_Init>:
 8001e38:	e92d 4ff7 	stmdb	sp!, {r0, r1, r2, r4, r5, r6, r7, r8, r9, sl, fp, lr}
 8001e3c:	2400      	movs	r4, #0
 8001e3e:	4626      	mov	r6, r4
 8001e40:	4b65      	ldr	r3, [pc, #404]	; (8001fd8 <HAL_GPIO_Init+0x1a0>)
 8001e42:	f8df c1a4 	ldr.w	ip, [pc, #420]	; 8001fe8 <HAL_GPIO_Init+0x1b0>
 8001e46:	f8df e1a4 	ldr.w	lr, [pc, #420]	; 8001fec <HAL_GPIO_Init+0x1b4>
 8001e4a:	680a      	ldr	r2, [r1, #0]
 8001e4c:	fa32 f506 	lsrs.w	r5, r2, r6
 8001e50:	d102      	bne.n	8001e58 <HAL_GPIO_Init+0x20>
 8001e52:	b003      	add	sp, #12
 8001e54:	e8bd 8ff0 	ldmia.w	sp!, {r4, r5, r6, r7, r8, r9, sl, fp, pc}
 8001e58:	f04f 0801 	mov.w	r8, #1
 8001e5c:	fa08 f806 	lsl.w	r8, r8, r6
 8001e60:	ea02 0208 	and.w	r2, r2, r8
 8001e64:	4590      	cmp	r8, r2
 8001e66:	d17e      	bne.n	8001f66 <HAL_GPIO_Init+0x12e>
 8001e68:	684d      	ldr	r5, [r1, #4]
 8001e6a:	2d12      	cmp	r5, #18
 8001e6c:	f000 80a9 	beq.w	8001fc2 <HAL_GPIO_Init+0x18a>
 8001e70:	f200 8082 	bhi.w	8001f78 <HAL_GPIO_Init+0x140>
 8001e74:	2d02      	cmp	r5, #2
 8001e76:	f000 80a1 	beq.w	8001fbc <HAL_GPIO_Init+0x184>
 8001e7a:	d876      	bhi.n	8001f6a <HAL_GPIO_Init+0x132>
 8001e7c:	2d00      	cmp	r5, #0
 8001e7e:	f000 8088 	beq.w	8001f92 <HAL_GPIO_Init+0x15a>
 8001e82:	2d01      	cmp	r5, #1
 8001e84:	f000 8098 	beq.w	8001fb8 <HAL_GPIO_Init+0x180>
 8001e88:	f04f 090f 	mov.w	r9, #15
 8001e8c:	2aff      	cmp	r2, #255	; 0xff
 8001e8e:	bf93      	iteet	ls
 8001e90:	4682      	movls	sl, r0
 8001e92:	f106 4580 	addhi.w	r5, r6, #1073741824	; 0x40000000
 8001e96:	3d08      	subhi	r5, #8
 8001e98:	f8d0 b000 	ldrls.w	fp, [r0]
 8001e9c:	bf92      	itee	ls
 8001e9e:	00b5      	lslls	r5, r6, #2
 8001ea0:	f8d0 b004 	ldrhi.w	fp, [r0, #4]
 8001ea4:	00ad      	lslhi	r5, r5, #2
 8001ea6:	fa09 f805 	lsl.w	r8, r9, r5
 8001eaa:	ea2b 0808 	bic.w	r8, fp, r8
 8001eae:	fa04 f505 	lsl.w	r5, r4, r5
 8001eb2:	bf88      	it	hi
 8001eb4:	f100 0a04 	addhi.w	sl, r0, #4
 8001eb8:	ea48 0505 	orr.w	r5, r8, r5
 8001ebc:	f8ca 5000 	str.w	r5, [sl]
 8001ec0:	f8d1 a004 	ldr.w	sl, [r1, #4]
 8001ec4:	f01a 5f80 	tst.w	sl, #268435456	; 0x10000000
 8001ec8:	d04d      	beq.n	8001f66 <HAL_GPIO_Init+0x12e>
 8001eca:	4f44      	ldr	r7, [pc, #272]	; (8001fdc <HAL_GPIO_Init+0x1a4>)
 8001ecc:	f026 0803 	bic.w	r8, r6, #3
 8001ed0:	69bd      	ldr	r5, [r7, #24]
 8001ed2:	f108 4880 	add.w	r8, r8, #1073741824	; 0x40000000
 8001ed6:	f045 0501 	orr.w	r5, r5, #1
 8001eda:	61bd      	str	r5, [r7, #24]
 8001edc:	69bd      	ldr	r5, [r7, #24]
 8001ede:	f508 3880 	add.w	r8, r8, #65536	; 0x10000
 8001ee2:	f005 0501 	and.w	r5, r5, #1
 8001ee6:	9501      	str	r5, [sp, #4]
 8001ee8:	f006 0b03 	and.w	fp, r6, #3
 8001eec:	9d01      	ldr	r5, [sp, #4]
 8001eee:	ea4f 0b8b 	mov.w	fp, fp, lsl #2
 8001ef2:	f8d8 5008 	ldr.w	r5, [r8, #8]
 8001ef6:	fa09 f90b 	lsl.w	r9, r9, fp
 8001efa:	ea25 0909 	bic.w	r9, r5, r9
 8001efe:	4d38      	ldr	r5, [pc, #224]	; (8001fe0 <HAL_GPIO_Init+0x1a8>)
 8001f00:	42a8      	cmp	r0, r5
 8001f02:	d063      	beq.n	8001fcc <HAL_GPIO_Init+0x194>
 8001f04:	f505 6580 	add.w	r5, r5, #1024	; 0x400
 8001f08:	42a8      	cmp	r0, r5
 8001f0a:	d061      	beq.n	8001fd0 <HAL_GPIO_Init+0x198>
 8001f0c:	f505 6580 	add.w	r5, r5, #1024	; 0x400
 8001f10:	42a8      	cmp	r0, r5
 8001f12:	d05f      	beq.n	8001fd4 <HAL_GPIO_Init+0x19c>
 8001f14:	f505 6580 	add.w	r5, r5, #1024	; 0x400
 8001f18:	42a8      	cmp	r0, r5
 8001f1a:	bf0c      	ite	eq
 8001f1c:	2503      	moveq	r5, #3
 8001f1e:	2504      	movne	r5, #4
 8001f20:	fa05 f50b 	lsl.w	r5, r5, fp
 8001f24:	ea45 0509 	orr.w	r5, r5, r9
 8001f28:	f8c8 5008 	str.w	r5, [r8, #8]
 8001f2c:	681d      	ldr	r5, [r3, #0]
 8001f2e:	f41a 3f80 	tst.w	sl, #65536	; 0x10000
 8001f32:	bf14      	ite	ne
 8001f34:	4315      	orrne	r5, r2
 8001f36:	4395      	biceq	r5, r2
 8001f38:	601d      	str	r5, [r3, #0]
 8001f3a:	685d      	ldr	r5, [r3, #4]
 8001f3c:	f41a 3f00 	tst.w	sl, #131072	; 0x20000
 8001f40:	bf14      	ite	ne
 8001f42:	4315      	orrne	r5, r2
 8001f44:	4395      	biceq	r5, r2
 8001f46:	605d      	str	r5, [r3, #4]
 8001f48:	689d      	ldr	r5, [r3, #8]
 8001f4a:	f41a 1f80 	tst.w	sl, #1048576	; 0x100000
 8001f4e:	bf14      	ite	ne
 8001f50:	4315      	orrne	r5, r2
 8001f52:	4395      	biceq	r5, r2
 8001f54:	609d      	str	r5, [r3, #8]
 8001f56:	68dd      	ldr	r5, [r3, #12]
 8001f58:	f41a 1f00 	tst.w	sl, #2097152	; 0x200000
 8001f5c:	bf14      	ite	ne
 8001f5e:	432a      	orrne	r2, r5
 8001f60:	ea25 0202 	biceq.w	r2, r5, r2
 8001f64:	60da      	str	r2, [r3, #12]
 8001f66:	3601      	adds	r6, #1
 8001f68:	e76f      	b.n	8001e4a <HAL_GPIO_Init+0x12>
 8001f6a:	2d03      	cmp	r5, #3
 8001f6c:	d022      	beq.n	8001fb4 <HAL_GPIO_Init+0x17c>
 8001f6e:	2d11      	cmp	r5, #17
 8001f70:	d18a      	bne.n	8001e88 <HAL_GPIO_Init+0x50>
 8001f72:	68cc      	ldr	r4, [r1, #12]
 8001f74:	3404      	adds	r4, #4
 8001f76:	e787      	b.n	8001e88 <HAL_GPIO_Init+0x50>
 8001f78:	4f1a      	ldr	r7, [pc, #104]	; (8001fe4 <HAL_GPIO_Init+0x1ac>)
 8001f7a:	42bd      	cmp	r5, r7
 8001f7c:	d009      	beq.n	8001f92 <HAL_GPIO_Init+0x15a>
 8001f7e:	d812      	bhi.n	8001fa6 <HAL_GPIO_Init+0x16e>
 8001f80:	f8df 906c 	ldr.w	r9, [pc, #108]	; 8001ff0 <HAL_GPIO_Init+0x1b8>
 8001f84:	454d      	cmp	r5, r9
 8001f86:	d004      	beq.n	8001f92 <HAL_GPIO_Init+0x15a>
 8001f88:	f509 3980 	add.w	r9, r9, #65536	; 0x10000
 8001f8c:	454d      	cmp	r5, r9
 8001f8e:	f47f af7b 	bne.w	8001e88 <HAL_GPIO_Init+0x50>
 8001f92:	688c      	ldr	r4, [r1, #8]
 8001f94:	b1c4      	cbz	r4, 8001fc8 <HAL_GPIO_Init+0x190>
 8001f96:	2c01      	cmp	r4, #1
 8001f98:	bf0c      	ite	eq
 8001f9a:	f8c0 8010 	streq.w	r8, [r0, #16]
 8001f9e:	f8c0 8014 	strne.w	r8, [r0, #20]
 8001fa2:	2408      	movs	r4, #8
 8001fa4:	e770      	b.n	8001e88 <HAL_GPIO_Init+0x50>
 8001fa6:	4565      	cmp	r5, ip
 8001fa8:	d0f3      	beq.n	8001f92 <HAL_GPIO_Init+0x15a>
 8001faa:	4575      	cmp	r5, lr
 8001fac:	d0f1      	beq.n	8001f92 <HAL_GPIO_Init+0x15a>
 8001fae:	f8df 9044 	ldr.w	r9, [pc, #68]	; 8001ff4 <HAL_GPIO_Init+0x1bc>
 8001fb2:	e7eb      	b.n	8001f8c <HAL_GPIO_Init+0x154>
 8001fb4:	2400      	movs	r4, #0
 8001fb6:	e767      	b.n	8001e88 <HAL_GPIO_Init+0x50>
 8001fb8:	68cc      	ldr	r4, [r1, #12]
 8001fba:	e765      	b.n	8001e88 <HAL_GPIO_Init+0x50>
 8001fbc:	68cc      	ldr	r4, [r1, #12]
 8001fbe:	3408      	adds	r4, #8
 8001fc0:	e762      	b.n	8001e88 <HAL_GPIO_Init+0x50>
 8001fc2:	68cc      	ldr	r4, [r1, #12]
 8001fc4:	340c      	adds	r4, #12
 8001fc6:	e75f      	b.n	8001e88 <HAL_GPIO_Init+0x50>
 8001fc8:	2404      	movs	r4, #4
 8001fca:	e75d      	b.n	8001e88 <HAL_GPIO_Init+0x50>
 8001fcc:	2500      	movs	r5, #0
 8001fce:	e7a7      	b.n	8001f20 <HAL_GPIO_Init+0xe8>
 8001fd0:	2501      	movs	r5, #1
 8001fd2:	e7a5      	b.n	8001f20 <HAL_GPIO_Init+0xe8>
 8001fd4:	2502      	movs	r5, #2
 8001fd6:	e7a3      	b.n	8001f20 <HAL_GPIO_Init+0xe8>
 8001fd8:	40010400 	.word	0x40010400
 8001fdc:	40021000 	.word	0x40021000
 8001fe0:	40010800 	.word	0x40010800
 8001fe4:	10210000 	.word	0x10210000
 8001fe8:	10310000 	.word	0x10310000
 8001fec:	10320000 	.word	0x10320000
 8001ff0:	10110000 	.word	0x10110000
 8001ff4:	10220000 	.word	0x10220000

08001ff8 <HAL_GPIO_ReadPin>:
 8001ff8:	6883      	ldr	r3, [r0, #8]
 8001ffa:	4219      	tst	r1, r3
 8001ffc:	bf14      	ite	ne
 8001ffe:	2001      	movne	r0, #1
 8002000:	2000      	moveq	r0, #0
 8002002:	4770      	bx	lr

08002004 <HAL_GPIO_WritePin>:
 8002004:	b10a      	cbz	r2, 800200a <HAL_GPIO_WritePin+0x6>
 8002006:	6101      	str	r1, [r0, #16]
 8002008:	4770      	bx	lr
 800200a:	0409      	lsls	r1, r1, #16
 800200c:	e7fb      	b.n	8002006 <HAL_GPIO_WritePin+0x2>
	...

08002010 <HAL_I2C_Init>:
 8002010:	b570      	push	{r4, r5, r6, lr}
 8002012:	4604      	mov	r4, r0
 8002014:	b908      	cbnz	r0, 800201a <HAL_I2C_Init+0xa>
 8002016:	2001      	movs	r0, #1
 8002018:	bd70      	pop	{r4, r5, r6, pc}
 800201a:	f890 303d 	ldrb.w	r3, [r0, #61]	; 0x3d
 800201e:	f003 02ff 	and.w	r2, r3, #255	; 0xff
 8002022:	b91b      	cbnz	r3, 800202c <HAL_I2C_Init+0x1c>
 8002024:	f880 203c 	strb.w	r2, [r0, #60]	; 0x3c
 8002028:	f7fe fe46 	bl	8000cb8 <HAL_I2C_MspInit>
 800202c:	2324      	movs	r3, #36	; 0x24
 800202e:	f884 303d 	strb.w	r3, [r4, #61]	; 0x3d
 8002032:	6823      	ldr	r3, [r4, #0]
 8002034:	681a      	ldr	r2, [r3, #0]
 8002036:	f022 0201 	bic.w	r2, r2, #1
 800203a:	601a      	str	r2, [r3, #0]
 800203c:	681a      	ldr	r2, [r3, #0]
 800203e:	f442 4200 	orr.w	r2, r2, #32768	; 0x8000
 8002042:	601a      	str	r2, [r3, #0]
 8002044:	681a      	ldr	r2, [r3, #0]
 8002046:	f422 4200 	bic.w	r2, r2, #32768	; 0x8000
 800204a:	601a      	str	r2, [r3, #0]
 800204c:	f000 fb00 	bl	8002650 <HAL_RCC_GetPCLK1Freq>
 8002050:	6863      	ldr	r3, [r4, #4]
 8002052:	4a41      	ldr	r2, [pc, #260]	; (8002158 <HAL_I2C_Init+0x148>)
 8002054:	4293      	cmp	r3, r2
 8002056:	d84d      	bhi.n	80020f4 <HAL_I2C_Init+0xe4>
 8002058:	4a40      	ldr	r2, [pc, #256]	; (800215c <HAL_I2C_Init+0x14c>)
 800205a:	4290      	cmp	r0, r2
 800205c:	d9db      	bls.n	8002016 <HAL_I2C_Init+0x6>
 800205e:	4940      	ldr	r1, [pc, #256]	; (8002160 <HAL_I2C_Init+0x150>)
 8002060:	6822      	ldr	r2, [r4, #0]
 8002062:	fbb0 f1f1 	udiv	r1, r0, r1
 8002066:	6855      	ldr	r5, [r2, #4]
 8002068:	f025 053f 	bic.w	r5, r5, #63	; 0x3f
 800206c:	430d      	orrs	r5, r1
 800206e:	6055      	str	r5, [r2, #4]
 8002070:	6a15      	ldr	r5, [r2, #32]
 8002072:	f025 053f 	bic.w	r5, r5, #63	; 0x3f
 8002076:	3101      	adds	r1, #1
 8002078:	4329      	orrs	r1, r5
 800207a:	6211      	str	r1, [r2, #32]
 800207c:	69d1      	ldr	r1, [r2, #28]
 800207e:	4d36      	ldr	r5, [pc, #216]	; (8002158 <HAL_I2C_Init+0x148>)
 8002080:	f421 414f 	bic.w	r1, r1, #52992	; 0xcf00
 8002084:	42ab      	cmp	r3, r5
 8002086:	f021 01ff 	bic.w	r1, r1, #255	; 0xff
 800208a:	f100 30ff 	add.w	r0, r0, #4294967295
 800208e:	d848      	bhi.n	8002122 <HAL_I2C_Init+0x112>
 8002090:	005b      	lsls	r3, r3, #1
 8002092:	fbb0 f0f3 	udiv	r0, r0, r3
 8002096:	1c43      	adds	r3, r0, #1
 8002098:	f3c3 030b 	ubfx	r3, r3, #0, #12
 800209c:	2b04      	cmp	r3, #4
 800209e:	bf38      	it	cc
 80020a0:	2304      	movcc	r3, #4
 80020a2:	430b      	orrs	r3, r1
 80020a4:	61d3      	str	r3, [r2, #28]
 80020a6:	6811      	ldr	r1, [r2, #0]
 80020a8:	e9d4 3007 	ldrd	r3, r0, [r4, #28]
 80020ac:	f021 01c0 	bic.w	r1, r1, #192	; 0xc0
 80020b0:	4303      	orrs	r3, r0
 80020b2:	430b      	orrs	r3, r1
 80020b4:	6013      	str	r3, [r2, #0]
 80020b6:	6891      	ldr	r1, [r2, #8]
 80020b8:	e9d4 0303 	ldrd	r0, r3, [r4, #12]
 80020bc:	f421 4103 	bic.w	r1, r1, #33536	; 0x8300
 80020c0:	4303      	orrs	r3, r0
 80020c2:	f021 01ff 	bic.w	r1, r1, #255	; 0xff
 80020c6:	430b      	orrs	r3, r1
 80020c8:	6093      	str	r3, [r2, #8]
 80020ca:	68d1      	ldr	r1, [r2, #12]
 80020cc:	e9d4 3005 	ldrd	r3, r0, [r4, #20]
 80020d0:	f021 01ff 	bic.w	r1, r1, #255	; 0xff
 80020d4:	4303      	orrs	r3, r0
 80020d6:	430b      	orrs	r3, r1
 80020d8:	60d3      	str	r3, [r2, #12]
 80020da:	6813      	ldr	r3, [r2, #0]
 80020dc:	2000      	movs	r0, #0
 80020de:	f043 0301 	orr.w	r3, r3, #1
 80020e2:	6013      	str	r3, [r2, #0]
 80020e4:	2320      	movs	r3, #32
 80020e6:	6420      	str	r0, [r4, #64]	; 0x40
 80020e8:	f884 303d 	strb.w	r3, [r4, #61]	; 0x3d
 80020ec:	6320      	str	r0, [r4, #48]	; 0x30
 80020ee:	f884 003e 	strb.w	r0, [r4, #62]	; 0x3e
 80020f2:	e791      	b.n	8002018 <HAL_I2C_Init+0x8>
 80020f4:	4a1b      	ldr	r2, [pc, #108]	; (8002164 <HAL_I2C_Init+0x154>)
 80020f6:	4290      	cmp	r0, r2
 80020f8:	d98d      	bls.n	8002016 <HAL_I2C_Init+0x6>
 80020fa:	4e19      	ldr	r6, [pc, #100]	; (8002160 <HAL_I2C_Init+0x150>)
 80020fc:	f44f 7196 	mov.w	r1, #300	; 0x12c
 8002100:	fbb0 f6f6 	udiv	r6, r0, r6
 8002104:	6822      	ldr	r2, [r4, #0]
 8002106:	4371      	muls	r1, r6
 8002108:	6855      	ldr	r5, [r2, #4]
 800210a:	f025 053f 	bic.w	r5, r5, #63	; 0x3f
 800210e:	4335      	orrs	r5, r6
 8002110:	f44f 767a 	mov.w	r6, #1000	; 0x3e8
 8002114:	6055      	str	r5, [r2, #4]
 8002116:	6a15      	ldr	r5, [r2, #32]
 8002118:	fbb1 f1f6 	udiv	r1, r1, r6
 800211c:	f025 053f 	bic.w	r5, r5, #63	; 0x3f
 8002120:	e7a9      	b.n	8002076 <HAL_I2C_Init+0x66>
 8002122:	68a5      	ldr	r5, [r4, #8]
 8002124:	b955      	cbnz	r5, 800213c <HAL_I2C_Init+0x12c>
 8002126:	eb03 0343 	add.w	r3, r3, r3, lsl #1
 800212a:	fbb0 f0f3 	udiv	r0, r0, r3
 800212e:	1c43      	adds	r3, r0, #1
 8002130:	f3c3 030b 	ubfx	r3, r3, #0, #12
 8002134:	b16b      	cbz	r3, 8002152 <HAL_I2C_Init+0x142>
 8002136:	f443 4300 	orr.w	r3, r3, #32768	; 0x8000
 800213a:	e7b2      	b.n	80020a2 <HAL_I2C_Init+0x92>
 800213c:	2519      	movs	r5, #25
 800213e:	436b      	muls	r3, r5
 8002140:	fbb0 f0f3 	udiv	r0, r0, r3
 8002144:	1c43      	adds	r3, r0, #1
 8002146:	f3c3 030b 	ubfx	r3, r3, #0, #12
 800214a:	b113      	cbz	r3, 8002152 <HAL_I2C_Init+0x142>
 800214c:	f443 4340 	orr.w	r3, r3, #49152	; 0xc000
 8002150:	e7a7      	b.n	80020a2 <HAL_I2C_Init+0x92>
 8002152:	2301      	movs	r3, #1
 8002154:	e7a5      	b.n	80020a2 <HAL_I2C_Init+0x92>
 8002156:	bf00      	nop
 8002158:	000186a0 	.word	0x000186a0
 800215c:	001e847f 	.word	0x001e847f
 8002160:	000f4240 	.word	0x000f4240
 8002164:	003d08ff 	.word	0x003d08ff

08002168 <HAL_RCC_OscConfig>:
 8002168:	e92d 41f3 	stmdb	sp!, {r0, r1, r4, r5, r6, r7, r8, lr}
 800216c:	4605      	mov	r5, r0
 800216e:	b908      	cbnz	r0, 8002174 <HAL_RCC_OscConfig+0xc>
 8002170:	2001      	movs	r0, #1
 8002172:	e03c      	b.n	80021ee <HAL_RCC_OscConfig+0x86>
 8002174:	6803      	ldr	r3, [r0, #0]
 8002176:	07db      	lsls	r3, r3, #31
 8002178:	d410      	bmi.n	800219c <HAL_RCC_OscConfig+0x34>
 800217a:	682b      	ldr	r3, [r5, #0]
 800217c:	079f      	lsls	r7, r3, #30
 800217e:	d45d      	bmi.n	800223c <HAL_RCC_OscConfig+0xd4>
 8002180:	682b      	ldr	r3, [r5, #0]
 8002182:	0719      	lsls	r1, r3, #28
 8002184:	f100 8094 	bmi.w	80022b0 <HAL_RCC_OscConfig+0x148>
 8002188:	682b      	ldr	r3, [r5, #0]
 800218a:	075a      	lsls	r2, r3, #29
 800218c:	f100 80be 	bmi.w	800230c <HAL_RCC_OscConfig+0x1a4>
 8002190:	69e8      	ldr	r0, [r5, #28]
 8002192:	2800      	cmp	r0, #0
 8002194:	f040 812c 	bne.w	80023f0 <HAL_RCC_OscConfig+0x288>
 8002198:	2000      	movs	r0, #0
 800219a:	e028      	b.n	80021ee <HAL_RCC_OscConfig+0x86>
 800219c:	4c8f      	ldr	r4, [pc, #572]	; (80023dc <HAL_RCC_OscConfig+0x274>)
 800219e:	6863      	ldr	r3, [r4, #4]
 80021a0:	f003 030c 	and.w	r3, r3, #12
 80021a4:	2b04      	cmp	r3, #4
 80021a6:	d007      	beq.n	80021b8 <HAL_RCC_OscConfig+0x50>
 80021a8:	6863      	ldr	r3, [r4, #4]
 80021aa:	f003 030c 	and.w	r3, r3, #12
 80021ae:	2b08      	cmp	r3, #8
 80021b0:	d109      	bne.n	80021c6 <HAL_RCC_OscConfig+0x5e>
 80021b2:	6863      	ldr	r3, [r4, #4]
 80021b4:	03de      	lsls	r6, r3, #15
 80021b6:	d506      	bpl.n	80021c6 <HAL_RCC_OscConfig+0x5e>
 80021b8:	6823      	ldr	r3, [r4, #0]
 80021ba:	039c      	lsls	r4, r3, #14
 80021bc:	d5dd      	bpl.n	800217a <HAL_RCC_OscConfig+0x12>
 80021be:	686b      	ldr	r3, [r5, #4]
 80021c0:	2b00      	cmp	r3, #0
 80021c2:	d1da      	bne.n	800217a <HAL_RCC_OscConfig+0x12>
 80021c4:	e7d4      	b.n	8002170 <HAL_RCC_OscConfig+0x8>
 80021c6:	686b      	ldr	r3, [r5, #4]
 80021c8:	f5b3 3f80 	cmp.w	r3, #65536	; 0x10000
 80021cc:	d112      	bne.n	80021f4 <HAL_RCC_OscConfig+0x8c>
 80021ce:	6823      	ldr	r3, [r4, #0]
 80021d0:	f443 3380 	orr.w	r3, r3, #65536	; 0x10000
 80021d4:	6023      	str	r3, [r4, #0]
 80021d6:	f7ff fc8b 	bl	8001af0 <HAL_GetTick>
 80021da:	4606      	mov	r6, r0
 80021dc:	6823      	ldr	r3, [r4, #0]
 80021de:	0398      	lsls	r0, r3, #14
 80021e0:	d4cb      	bmi.n	800217a <HAL_RCC_OscConfig+0x12>
 80021e2:	f7ff fc85 	bl	8001af0 <HAL_GetTick>
 80021e6:	1b80      	subs	r0, r0, r6
 80021e8:	2864      	cmp	r0, #100	; 0x64
 80021ea:	d9f7      	bls.n	80021dc <HAL_RCC_OscConfig+0x74>
 80021ec:	2003      	movs	r0, #3
 80021ee:	b002      	add	sp, #8
 80021f0:	e8bd 81f0 	ldmia.w	sp!, {r4, r5, r6, r7, r8, pc}
 80021f4:	b99b      	cbnz	r3, 800221e <HAL_RCC_OscConfig+0xb6>
 80021f6:	6823      	ldr	r3, [r4, #0]
 80021f8:	f423 3380 	bic.w	r3, r3, #65536	; 0x10000
 80021fc:	6023      	str	r3, [r4, #0]
 80021fe:	6823      	ldr	r3, [r4, #0]
 8002200:	f423 2380 	bic.w	r3, r3, #262144	; 0x40000
 8002204:	6023      	str	r3, [r4, #0]
 8002206:	f7ff fc73 	bl	8001af0 <HAL_GetTick>
 800220a:	4606      	mov	r6, r0
 800220c:	6823      	ldr	r3, [r4, #0]
 800220e:	0399      	lsls	r1, r3, #14
 8002210:	d5b3      	bpl.n	800217a <HAL_RCC_OscConfig+0x12>
 8002212:	f7ff fc6d 	bl	8001af0 <HAL_GetTick>
 8002216:	1b80      	subs	r0, r0, r6
 8002218:	2864      	cmp	r0, #100	; 0x64
 800221a:	d9f7      	bls.n	800220c <HAL_RCC_OscConfig+0xa4>
 800221c:	e7e6      	b.n	80021ec <HAL_RCC_OscConfig+0x84>
 800221e:	f5b3 2fa0 	cmp.w	r3, #327680	; 0x50000
 8002222:	6823      	ldr	r3, [r4, #0]
 8002224:	d103      	bne.n	800222e <HAL_RCC_OscConfig+0xc6>
 8002226:	f443 2380 	orr.w	r3, r3, #262144	; 0x40000
 800222a:	6023      	str	r3, [r4, #0]
 800222c:	e7cf      	b.n	80021ce <HAL_RCC_OscConfig+0x66>
 800222e:	f423 3380 	bic.w	r3, r3, #65536	; 0x10000
 8002232:	6023      	str	r3, [r4, #0]
 8002234:	6823      	ldr	r3, [r4, #0]
 8002236:	f423 2380 	bic.w	r3, r3, #262144	; 0x40000
 800223a:	e7cb      	b.n	80021d4 <HAL_RCC_OscConfig+0x6c>
 800223c:	4c67      	ldr	r4, [pc, #412]	; (80023dc <HAL_RCC_OscConfig+0x274>)
 800223e:	6863      	ldr	r3, [r4, #4]
 8002240:	f013 0f0c 	tst.w	r3, #12
 8002244:	d007      	beq.n	8002256 <HAL_RCC_OscConfig+0xee>
 8002246:	6863      	ldr	r3, [r4, #4]
 8002248:	f003 030c 	and.w	r3, r3, #12
 800224c:	2b08      	cmp	r3, #8
 800224e:	d110      	bne.n	8002272 <HAL_RCC_OscConfig+0x10a>
 8002250:	6863      	ldr	r3, [r4, #4]
 8002252:	03da      	lsls	r2, r3, #15
 8002254:	d40d      	bmi.n	8002272 <HAL_RCC_OscConfig+0x10a>
 8002256:	6823      	ldr	r3, [r4, #0]
 8002258:	079b      	lsls	r3, r3, #30
 800225a:	d502      	bpl.n	8002262 <HAL_RCC_OscConfig+0xfa>
 800225c:	692b      	ldr	r3, [r5, #16]
 800225e:	2b01      	cmp	r3, #1
 8002260:	d186      	bne.n	8002170 <HAL_RCC_OscConfig+0x8>
 8002262:	6823      	ldr	r3, [r4, #0]
 8002264:	696a      	ldr	r2, [r5, #20]
 8002266:	f023 03f8 	bic.w	r3, r3, #248	; 0xf8
 800226a:	ea43 03c2 	orr.w	r3, r3, r2, lsl #3
 800226e:	6023      	str	r3, [r4, #0]
 8002270:	e786      	b.n	8002180 <HAL_RCC_OscConfig+0x18>
 8002272:	692a      	ldr	r2, [r5, #16]
 8002274:	4b5a      	ldr	r3, [pc, #360]	; (80023e0 <HAL_RCC_OscConfig+0x278>)
 8002276:	b16a      	cbz	r2, 8002294 <HAL_RCC_OscConfig+0x12c>
 8002278:	2201      	movs	r2, #1
 800227a:	601a      	str	r2, [r3, #0]
 800227c:	f7ff fc38 	bl	8001af0 <HAL_GetTick>
 8002280:	4606      	mov	r6, r0
 8002282:	6823      	ldr	r3, [r4, #0]
 8002284:	079f      	lsls	r7, r3, #30
 8002286:	d4ec      	bmi.n	8002262 <HAL_RCC_OscConfig+0xfa>
 8002288:	f7ff fc32 	bl	8001af0 <HAL_GetTick>
 800228c:	1b80      	subs	r0, r0, r6
 800228e:	2802      	cmp	r0, #2
 8002290:	d9f7      	bls.n	8002282 <HAL_RCC_OscConfig+0x11a>
 8002292:	e7ab      	b.n	80021ec <HAL_RCC_OscConfig+0x84>
 8002294:	601a      	str	r2, [r3, #0]
 8002296:	f7ff fc2b 	bl	8001af0 <HAL_GetTick>
 800229a:	4606      	mov	r6, r0
 800229c:	6823      	ldr	r3, [r4, #0]
 800229e:	0798      	lsls	r0, r3, #30
 80022a0:	f57f af6e 	bpl.w	8002180 <HAL_RCC_OscConfig+0x18>
 80022a4:	f7ff fc24 	bl	8001af0 <HAL_GetTick>
 80022a8:	1b80      	subs	r0, r0, r6
 80022aa:	2802      	cmp	r0, #2
 80022ac:	d9f6      	bls.n	800229c <HAL_RCC_OscConfig+0x134>
 80022ae:	e79d      	b.n	80021ec <HAL_RCC_OscConfig+0x84>
 80022b0:	69aa      	ldr	r2, [r5, #24]
 80022b2:	4c4a      	ldr	r4, [pc, #296]	; (80023dc <HAL_RCC_OscConfig+0x274>)
 80022b4:	4b4b      	ldr	r3, [pc, #300]	; (80023e4 <HAL_RCC_OscConfig+0x27c>)
 80022b6:	b1da      	cbz	r2, 80022f0 <HAL_RCC_OscConfig+0x188>
 80022b8:	2201      	movs	r2, #1
 80022ba:	601a      	str	r2, [r3, #0]
 80022bc:	f7ff fc18 	bl	8001af0 <HAL_GetTick>
 80022c0:	4606      	mov	r6, r0
 80022c2:	6a63      	ldr	r3, [r4, #36]	; 0x24
 80022c4:	079b      	lsls	r3, r3, #30
 80022c6:	d50d      	bpl.n	80022e4 <HAL_RCC_OscConfig+0x17c>
 80022c8:	f44f 52fa 	mov.w	r2, #8000	; 0x1f40
 80022cc:	4b46      	ldr	r3, [pc, #280]	; (80023e8 <HAL_RCC_OscConfig+0x280>)
 80022ce:	681b      	ldr	r3, [r3, #0]
 80022d0:	fbb3 f3f2 	udiv	r3, r3, r2
 80022d4:	9301      	str	r3, [sp, #4]
 80022d6:	bf00      	nop
 80022d8:	9b01      	ldr	r3, [sp, #4]
 80022da:	1e5a      	subs	r2, r3, #1
 80022dc:	9201      	str	r2, [sp, #4]
 80022de:	2b00      	cmp	r3, #0
 80022e0:	d1f9      	bne.n	80022d6 <HAL_RCC_OscConfig+0x16e>
 80022e2:	e751      	b.n	8002188 <HAL_RCC_OscConfig+0x20>
 80022e4:	f7ff fc04 	bl	8001af0 <HAL_GetTick>
 80022e8:	1b80      	subs	r0, r0, r6
 80022ea:	2802      	cmp	r0, #2
 80022ec:	d9e9      	bls.n	80022c2 <HAL_RCC_OscConfig+0x15a>
 80022ee:	e77d      	b.n	80021ec <HAL_RCC_OscConfig+0x84>
 80022f0:	601a      	str	r2, [r3, #0]
 80022f2:	f7ff fbfd 	bl	8001af0 <HAL_GetTick>
 80022f6:	4606      	mov	r6, r0
 80022f8:	6a63      	ldr	r3, [r4, #36]	; 0x24
 80022fa:	079f      	lsls	r7, r3, #30
 80022fc:	f57f af44 	bpl.w	8002188 <HAL_RCC_OscConfig+0x20>
 8002300:	f7ff fbf6 	bl	8001af0 <HAL_GetTick>
 8002304:	1b80      	subs	r0, r0, r6
 8002306:	2802      	cmp	r0, #2
 8002308:	d9f6      	bls.n	80022f8 <HAL_RCC_OscConfig+0x190>
 800230a:	e76f      	b.n	80021ec <HAL_RCC_OscConfig+0x84>
 800230c:	4c33      	ldr	r4, [pc, #204]	; (80023dc <HAL_RCC_OscConfig+0x274>)
 800230e:	69e3      	ldr	r3, [r4, #28]
 8002310:	00d8      	lsls	r0, r3, #3
 8002312:	d424      	bmi.n	800235e <HAL_RCC_OscConfig+0x1f6>
 8002314:	2701      	movs	r7, #1
 8002316:	69e3      	ldr	r3, [r4, #28]
 8002318:	f043 5380 	orr.w	r3, r3, #268435456	; 0x10000000
 800231c:	61e3      	str	r3, [r4, #28]
 800231e:	69e3      	ldr	r3, [r4, #28]
 8002320:	f003 5380 	and.w	r3, r3, #268435456	; 0x10000000
 8002324:	9300      	str	r3, [sp, #0]
 8002326:	9b00      	ldr	r3, [sp, #0]
 8002328:	4e30      	ldr	r6, [pc, #192]	; (80023ec <HAL_RCC_OscConfig+0x284>)
 800232a:	6833      	ldr	r3, [r6, #0]
 800232c:	05d9      	lsls	r1, r3, #23
 800232e:	d518      	bpl.n	8002362 <HAL_RCC_OscConfig+0x1fa>
 8002330:	68eb      	ldr	r3, [r5, #12]
 8002332:	2b01      	cmp	r3, #1
 8002334:	d126      	bne.n	8002384 <HAL_RCC_OscConfig+0x21c>
 8002336:	6a23      	ldr	r3, [r4, #32]
 8002338:	f043 0301 	orr.w	r3, r3, #1
 800233c:	6223      	str	r3, [r4, #32]
 800233e:	f7ff fbd7 	bl	8001af0 <HAL_GetTick>
 8002342:	f241 3688 	movw	r6, #5000	; 0x1388
 8002346:	4680      	mov	r8, r0
 8002348:	6a23      	ldr	r3, [r4, #32]
 800234a:	079b      	lsls	r3, r3, #30
 800234c:	d53f      	bpl.n	80023ce <HAL_RCC_OscConfig+0x266>
 800234e:	2f00      	cmp	r7, #0
 8002350:	f43f af1e 	beq.w	8002190 <HAL_RCC_OscConfig+0x28>
 8002354:	69e3      	ldr	r3, [r4, #28]
 8002356:	f023 5380 	bic.w	r3, r3, #268435456	; 0x10000000
 800235a:	61e3      	str	r3, [r4, #28]
 800235c:	e718      	b.n	8002190 <HAL_RCC_OscConfig+0x28>
 800235e:	2700      	movs	r7, #0
 8002360:	e7e2      	b.n	8002328 <HAL_RCC_OscConfig+0x1c0>
 8002362:	6833      	ldr	r3, [r6, #0]
 8002364:	f443 7380 	orr.w	r3, r3, #256	; 0x100
 8002368:	6033      	str	r3, [r6, #0]
 800236a:	f7ff fbc1 	bl	8001af0 <HAL_GetTick>
 800236e:	4680      	mov	r8, r0
 8002370:	6833      	ldr	r3, [r6, #0]
 8002372:	05da      	lsls	r2, r3, #23
 8002374:	d4dc      	bmi.n	8002330 <HAL_RCC_OscConfig+0x1c8>
 8002376:	f7ff fbbb 	bl	8001af0 <HAL_GetTick>
 800237a:	eba0 0008 	sub.w	r0, r0, r8
 800237e:	2864      	cmp	r0, #100	; 0x64
 8002380:	d9f6      	bls.n	8002370 <HAL_RCC_OscConfig+0x208>
 8002382:	e733      	b.n	80021ec <HAL_RCC_OscConfig+0x84>
 8002384:	b9ab      	cbnz	r3, 80023b2 <HAL_RCC_OscConfig+0x24a>
 8002386:	6a23      	ldr	r3, [r4, #32]
 8002388:	f241 3888 	movw	r8, #5000	; 0x1388
 800238c:	f023 0301 	bic.w	r3, r3, #1
 8002390:	6223      	str	r3, [r4, #32]
 8002392:	6a23      	ldr	r3, [r4, #32]
 8002394:	f023 0304 	bic.w	r3, r3, #4
 8002398:	6223      	str	r3, [r4, #32]
 800239a:	f7ff fba9 	bl	8001af0 <HAL_GetTick>
 800239e:	4606      	mov	r6, r0
 80023a0:	6a23      	ldr	r3, [r4, #32]
 80023a2:	0798      	lsls	r0, r3, #30
 80023a4:	d5d3      	bpl.n	800234e <HAL_RCC_OscConfig+0x1e6>
 80023a6:	f7ff fba3 	bl	8001af0 <HAL_GetTick>
 80023aa:	1b80      	subs	r0, r0, r6
 80023ac:	4540      	cmp	r0, r8
 80023ae:	d9f7      	bls.n	80023a0 <HAL_RCC_OscConfig+0x238>
 80023b0:	e71c      	b.n	80021ec <HAL_RCC_OscConfig+0x84>
 80023b2:	2b05      	cmp	r3, #5
 80023b4:	6a23      	ldr	r3, [r4, #32]
 80023b6:	d103      	bne.n	80023c0 <HAL_RCC_OscConfig+0x258>
 80023b8:	f043 0304 	orr.w	r3, r3, #4
 80023bc:	6223      	str	r3, [r4, #32]
 80023be:	e7ba      	b.n	8002336 <HAL_RCC_OscConfig+0x1ce>
 80023c0:	f023 0301 	bic.w	r3, r3, #1
 80023c4:	6223      	str	r3, [r4, #32]
 80023c6:	6a23      	ldr	r3, [r4, #32]
 80023c8:	f023 0304 	bic.w	r3, r3, #4
 80023cc:	e7b6      	b.n	800233c <HAL_RCC_OscConfig+0x1d4>
 80023ce:	f7ff fb8f 	bl	8001af0 <HAL_GetTick>
 80023d2:	eba0 0008 	sub.w	r0, r0, r8
 80023d6:	42b0      	cmp	r0, r6
 80023d8:	d9b6      	bls.n	8002348 <HAL_RCC_OscConfig+0x1e0>
 80023da:	e707      	b.n	80021ec <HAL_RCC_OscConfig+0x84>
 80023dc:	40021000 	.word	0x40021000
 80023e0:	42420000 	.word	0x42420000
 80023e4:	42420480 	.word	0x42420480
 80023e8:	20000018 	.word	0x20000018
 80023ec:	40007000 	.word	0x40007000
 80023f0:	4b2a      	ldr	r3, [pc, #168]	; (800249c <HAL_RCC_OscConfig+0x334>)
 80023f2:	685a      	ldr	r2, [r3, #4]
 80023f4:	461c      	mov	r4, r3
 80023f6:	f002 020c 	and.w	r2, r2, #12
 80023fa:	2a08      	cmp	r2, #8
 80023fc:	d03d      	beq.n	800247a <HAL_RCC_OscConfig+0x312>
 80023fe:	2300      	movs	r3, #0
 8002400:	4e27      	ldr	r6, [pc, #156]	; (80024a0 <HAL_RCC_OscConfig+0x338>)
 8002402:	2802      	cmp	r0, #2
 8002404:	6033      	str	r3, [r6, #0]
 8002406:	d12b      	bne.n	8002460 <HAL_RCC_OscConfig+0x2f8>
 8002408:	f7ff fb72 	bl	8001af0 <HAL_GetTick>
 800240c:	4607      	mov	r7, r0
 800240e:	6823      	ldr	r3, [r4, #0]
 8002410:	0199      	lsls	r1, r3, #6
 8002412:	d41f      	bmi.n	8002454 <HAL_RCC_OscConfig+0x2ec>
 8002414:	6a2b      	ldr	r3, [r5, #32]
 8002416:	f5b3 3f80 	cmp.w	r3, #65536	; 0x10000
 800241a:	d105      	bne.n	8002428 <HAL_RCC_OscConfig+0x2c0>
 800241c:	6862      	ldr	r2, [r4, #4]
 800241e:	68a9      	ldr	r1, [r5, #8]
 8002420:	f422 3200 	bic.w	r2, r2, #131072	; 0x20000
 8002424:	430a      	orrs	r2, r1
 8002426:	6062      	str	r2, [r4, #4]
 8002428:	6a69      	ldr	r1, [r5, #36]	; 0x24
 800242a:	6862      	ldr	r2, [r4, #4]
 800242c:	430b      	orrs	r3, r1
 800242e:	f422 1274 	bic.w	r2, r2, #3997696	; 0x3d0000
 8002432:	4313      	orrs	r3, r2
 8002434:	6063      	str	r3, [r4, #4]
 8002436:	2301      	movs	r3, #1
 8002438:	6033      	str	r3, [r6, #0]
 800243a:	f7ff fb59 	bl	8001af0 <HAL_GetTick>
 800243e:	4605      	mov	r5, r0
 8002440:	6823      	ldr	r3, [r4, #0]
 8002442:	019a      	lsls	r2, r3, #6
 8002444:	f53f aea8 	bmi.w	8002198 <HAL_RCC_OscConfig+0x30>
 8002448:	f7ff fb52 	bl	8001af0 <HAL_GetTick>
 800244c:	1b40      	subs	r0, r0, r5
 800244e:	2802      	cmp	r0, #2
 8002450:	d9f6      	bls.n	8002440 <HAL_RCC_OscConfig+0x2d8>
 8002452:	e6cb      	b.n	80021ec <HAL_RCC_OscConfig+0x84>
 8002454:	f7ff fb4c 	bl	8001af0 <HAL_GetTick>
 8002458:	1bc0      	subs	r0, r0, r7
 800245a:	2802      	cmp	r0, #2
 800245c:	d9d7      	bls.n	800240e <HAL_RCC_OscConfig+0x2a6>
 800245e:	e6c5      	b.n	80021ec <HAL_RCC_OscConfig+0x84>
 8002460:	f7ff fb46 	bl	8001af0 <HAL_GetTick>
 8002464:	4605      	mov	r5, r0
 8002466:	6823      	ldr	r3, [r4, #0]
 8002468:	019b      	lsls	r3, r3, #6
 800246a:	f57f ae95 	bpl.w	8002198 <HAL_RCC_OscConfig+0x30>
 800246e:	f7ff fb3f 	bl	8001af0 <HAL_GetTick>
 8002472:	1b40      	subs	r0, r0, r5
 8002474:	2802      	cmp	r0, #2
 8002476:	d9f6      	bls.n	8002466 <HAL_RCC_OscConfig+0x2fe>
 8002478:	e6b8      	b.n	80021ec <HAL_RCC_OscConfig+0x84>
 800247a:	2801      	cmp	r0, #1
 800247c:	f43f aeb7 	beq.w	80021ee <HAL_RCC_OscConfig+0x86>
 8002480:	6858      	ldr	r0, [r3, #4]
 8002482:	6a2b      	ldr	r3, [r5, #32]
 8002484:	f400 3280 	and.w	r2, r0, #65536	; 0x10000
 8002488:	429a      	cmp	r2, r3
 800248a:	f47f ae71 	bne.w	8002170 <HAL_RCC_OscConfig+0x8>
 800248e:	6a6b      	ldr	r3, [r5, #36]	; 0x24
 8002490:	f400 1070 	and.w	r0, r0, #3932160	; 0x3c0000
 8002494:	1ac0      	subs	r0, r0, r3
 8002496:	bf18      	it	ne
 8002498:	2001      	movne	r0, #1
 800249a:	e6a8      	b.n	80021ee <HAL_RCC_OscConfig+0x86>
 800249c:	40021000 	.word	0x40021000
 80024a0:	42420060 	.word	0x42420060

080024a4 <HAL_RCC_GetSysClockFreq>:
 80024a4:	b530      	push	{r4, r5, lr}
 80024a6:	4b18      	ldr	r3, [pc, #96]	; (8002508 <HAL_RCC_GetSysClockFreq+0x64>)
 80024a8:	b087      	sub	sp, #28
 80024aa:	ac02      	add	r4, sp, #8
 80024ac:	f103 0510 	add.w	r5, r3, #16
 80024b0:	4622      	mov	r2, r4
 80024b2:	6818      	ldr	r0, [r3, #0]
 80024b4:	6859      	ldr	r1, [r3, #4]
 80024b6:	3308      	adds	r3, #8
 80024b8:	c203      	stmia	r2!, {r0, r1}
 80024ba:	42ab      	cmp	r3, r5
 80024bc:	4614      	mov	r4, r2
 80024be:	d1f7      	bne.n	80024b0 <HAL_RCC_GetSysClockFreq+0xc>
 80024c0:	f240 2301 	movw	r3, #513	; 0x201
 80024c4:	4911      	ldr	r1, [pc, #68]	; (800250c <HAL_RCC_GetSysClockFreq+0x68>)
 80024c6:	f8ad 3004 	strh.w	r3, [sp, #4]
 80024ca:	684b      	ldr	r3, [r1, #4]
 80024cc:	f003 020c 	and.w	r2, r3, #12
 80024d0:	2a08      	cmp	r2, #8
 80024d2:	d117      	bne.n	8002504 <HAL_RCC_GetSysClockFreq+0x60>
 80024d4:	f3c3 4283 	ubfx	r2, r3, #18, #4
 80024d8:	a806      	add	r0, sp, #24
 80024da:	4402      	add	r2, r0
 80024dc:	03db      	lsls	r3, r3, #15
 80024de:	f812 2c10 	ldrb.w	r2, [r2, #-16]
 80024e2:	d50c      	bpl.n	80024fe <HAL_RCC_GetSysClockFreq+0x5a>
 80024e4:	684b      	ldr	r3, [r1, #4]
 80024e6:	480a      	ldr	r0, [pc, #40]	; (8002510 <HAL_RCC_GetSysClockFreq+0x6c>)
 80024e8:	f3c3 4340 	ubfx	r3, r3, #17, #1
 80024ec:	4350      	muls	r0, r2
 80024ee:	aa06      	add	r2, sp, #24
 80024f0:	4413      	add	r3, r2
 80024f2:	f813 3c14 	ldrb.w	r3, [r3, #-20]
 80024f6:	fbb0 f0f3 	udiv	r0, r0, r3
 80024fa:	b007      	add	sp, #28
 80024fc:	bd30      	pop	{r4, r5, pc}
 80024fe:	4805      	ldr	r0, [pc, #20]	; (8002514 <HAL_RCC_GetSysClockFreq+0x70>)
 8002500:	4350      	muls	r0, r2
 8002502:	e7fa      	b.n	80024fa <HAL_RCC_GetSysClockFreq+0x56>
 8002504:	4802      	ldr	r0, [pc, #8]	; (8002510 <HAL_RCC_GetSysClockFreq+0x6c>)
 8002506:	e7f8      	b.n	80024fa <HAL_RCC_GetSysClockFreq+0x56>
 8002508:	080047ac 	.word	0x080047ac
 800250c:	40021000 	.word	0x40021000
 8002510:	007a1200 	.word	0x007a1200
 8002514:	003d0900 	.word	0x003d0900

08002518 <HAL_RCC_ClockConfig>:
 8002518:	e92d 41f0 	stmdb	sp!, {r4, r5, r6, r7, r8, lr}
 800251c:	460d      	mov	r5, r1
 800251e:	4604      	mov	r4, r0
 8002520:	b910      	cbnz	r0, 8002528 <HAL_RCC_ClockConfig+0x10>
 8002522:	2001      	movs	r0, #1
 8002524:	e8bd 81f0 	ldmia.w	sp!, {r4, r5, r6, r7, r8, pc}
 8002528:	4a44      	ldr	r2, [pc, #272]	; (800263c <HAL_RCC_ClockConfig+0x124>)
 800252a:	6813      	ldr	r3, [r2, #0]
 800252c:	f003 0307 	and.w	r3, r3, #7
 8002530:	428b      	cmp	r3, r1
 8002532:	d328      	bcc.n	8002586 <HAL_RCC_ClockConfig+0x6e>
 8002534:	6821      	ldr	r1, [r4, #0]
 8002536:	078e      	lsls	r6, r1, #30
 8002538:	d430      	bmi.n	800259c <HAL_RCC_ClockConfig+0x84>
 800253a:	07ca      	lsls	r2, r1, #31
 800253c:	d443      	bmi.n	80025c6 <HAL_RCC_ClockConfig+0xae>
 800253e:	4a3f      	ldr	r2, [pc, #252]	; (800263c <HAL_RCC_ClockConfig+0x124>)
 8002540:	6813      	ldr	r3, [r2, #0]
 8002542:	f003 0307 	and.w	r3, r3, #7
 8002546:	42ab      	cmp	r3, r5
 8002548:	d865      	bhi.n	8002616 <HAL_RCC_ClockConfig+0xfe>
 800254a:	6822      	ldr	r2, [r4, #0]
 800254c:	4d3c      	ldr	r5, [pc, #240]	; (8002640 <HAL_RCC_ClockConfig+0x128>)
 800254e:	f012 0f04 	tst.w	r2, #4
 8002552:	d16c      	bne.n	800262e <HAL_RCC_ClockConfig+0x116>
 8002554:	0713      	lsls	r3, r2, #28
 8002556:	d506      	bpl.n	8002566 <HAL_RCC_ClockConfig+0x4e>
 8002558:	686b      	ldr	r3, [r5, #4]
 800255a:	6922      	ldr	r2, [r4, #16]
 800255c:	f423 5360 	bic.w	r3, r3, #14336	; 0x3800
 8002560:	ea43 03c2 	orr.w	r3, r3, r2, lsl #3
 8002564:	606b      	str	r3, [r5, #4]
 8002566:	f7ff ff9d 	bl	80024a4 <HAL_RCC_GetSysClockFreq>
 800256a:	686b      	ldr	r3, [r5, #4]
 800256c:	4a35      	ldr	r2, [pc, #212]	; (8002644 <HAL_RCC_ClockConfig+0x12c>)
 800256e:	f3c3 1303 	ubfx	r3, r3, #4, #4
 8002572:	5cd3      	ldrb	r3, [r2, r3]
 8002574:	40d8      	lsrs	r0, r3
 8002576:	4b34      	ldr	r3, [pc, #208]	; (8002648 <HAL_RCC_ClockConfig+0x130>)
 8002578:	6018      	str	r0, [r3, #0]
 800257a:	4b34      	ldr	r3, [pc, #208]	; (800264c <HAL_RCC_ClockConfig+0x134>)
 800257c:	6818      	ldr	r0, [r3, #0]
 800257e:	f7fe fc09 	bl	8000d94 <HAL_InitTick>
 8002582:	2000      	movs	r0, #0
 8002584:	e7ce      	b.n	8002524 <HAL_RCC_ClockConfig+0xc>
 8002586:	6813      	ldr	r3, [r2, #0]
 8002588:	f023 0307 	bic.w	r3, r3, #7
 800258c:	430b      	orrs	r3, r1
 800258e:	6013      	str	r3, [r2, #0]
 8002590:	6813      	ldr	r3, [r2, #0]
 8002592:	f003 0307 	and.w	r3, r3, #7
 8002596:	428b      	cmp	r3, r1
 8002598:	d1c3      	bne.n	8002522 <HAL_RCC_ClockConfig+0xa>
 800259a:	e7cb      	b.n	8002534 <HAL_RCC_ClockConfig+0x1c>
 800259c:	4b28      	ldr	r3, [pc, #160]	; (8002640 <HAL_RCC_ClockConfig+0x128>)
 800259e:	f011 0f04 	tst.w	r1, #4
 80025a2:	bf1e      	ittt	ne
 80025a4:	685a      	ldrne	r2, [r3, #4]
 80025a6:	f442 62e0 	orrne.w	r2, r2, #1792	; 0x700
 80025aa:	605a      	strne	r2, [r3, #4]
 80025ac:	0708      	lsls	r0, r1, #28
 80025ae:	bf42      	ittt	mi
 80025b0:	685a      	ldrmi	r2, [r3, #4]
 80025b2:	f442 5260 	orrmi.w	r2, r2, #14336	; 0x3800
 80025b6:	605a      	strmi	r2, [r3, #4]
 80025b8:	685a      	ldr	r2, [r3, #4]
 80025ba:	68a0      	ldr	r0, [r4, #8]
 80025bc:	f022 02f0 	bic.w	r2, r2, #240	; 0xf0
 80025c0:	4302      	orrs	r2, r0
 80025c2:	605a      	str	r2, [r3, #4]
 80025c4:	e7b9      	b.n	800253a <HAL_RCC_ClockConfig+0x22>
 80025c6:	6862      	ldr	r2, [r4, #4]
 80025c8:	4e1d      	ldr	r6, [pc, #116]	; (8002640 <HAL_RCC_ClockConfig+0x128>)
 80025ca:	2a01      	cmp	r2, #1
 80025cc:	6833      	ldr	r3, [r6, #0]
 80025ce:	d11a      	bne.n	8002606 <HAL_RCC_ClockConfig+0xee>
 80025d0:	f413 3f00 	tst.w	r3, #131072	; 0x20000
 80025d4:	d0a5      	beq.n	8002522 <HAL_RCC_ClockConfig+0xa>
 80025d6:	6873      	ldr	r3, [r6, #4]
 80025d8:	f241 3888 	movw	r8, #5000	; 0x1388
 80025dc:	f023 0303 	bic.w	r3, r3, #3
 80025e0:	4313      	orrs	r3, r2
 80025e2:	6073      	str	r3, [r6, #4]
 80025e4:	f7ff fa84 	bl	8001af0 <HAL_GetTick>
 80025e8:	4607      	mov	r7, r0
 80025ea:	6873      	ldr	r3, [r6, #4]
 80025ec:	6862      	ldr	r2, [r4, #4]
 80025ee:	f003 030c 	and.w	r3, r3, #12
 80025f2:	ebb3 0f82 	cmp.w	r3, r2, lsl #2
 80025f6:	d0a2      	beq.n	800253e <HAL_RCC_ClockConfig+0x26>
 80025f8:	f7ff fa7a 	bl	8001af0 <HAL_GetTick>
 80025fc:	1bc0      	subs	r0, r0, r7
 80025fe:	4540      	cmp	r0, r8
 8002600:	d9f3      	bls.n	80025ea <HAL_RCC_ClockConfig+0xd2>
 8002602:	2003      	movs	r0, #3
 8002604:	e78e      	b.n	8002524 <HAL_RCC_ClockConfig+0xc>
 8002606:	2a02      	cmp	r2, #2
 8002608:	d102      	bne.n	8002610 <HAL_RCC_ClockConfig+0xf8>
 800260a:	f013 7f00 	tst.w	r3, #33554432	; 0x2000000
 800260e:	e7e1      	b.n	80025d4 <HAL_RCC_ClockConfig+0xbc>
 8002610:	f013 0f02 	tst.w	r3, #2
 8002614:	e7de      	b.n	80025d4 <HAL_RCC_ClockConfig+0xbc>
 8002616:	6813      	ldr	r3, [r2, #0]
 8002618:	f023 0307 	bic.w	r3, r3, #7
 800261c:	432b      	orrs	r3, r5
 800261e:	6013      	str	r3, [r2, #0]
 8002620:	6813      	ldr	r3, [r2, #0]
 8002622:	f003 0307 	and.w	r3, r3, #7
 8002626:	42ab      	cmp	r3, r5
 8002628:	f47f af7b 	bne.w	8002522 <HAL_RCC_ClockConfig+0xa>
 800262c:	e78d      	b.n	800254a <HAL_RCC_ClockConfig+0x32>
 800262e:	686b      	ldr	r3, [r5, #4]
 8002630:	68e1      	ldr	r1, [r4, #12]
 8002632:	f423 63e0 	bic.w	r3, r3, #1792	; 0x700
 8002636:	430b      	orrs	r3, r1
 8002638:	606b      	str	r3, [r5, #4]
 800263a:	e78b      	b.n	8002554 <HAL_RCC_ClockConfig+0x3c>
 800263c:	40022000 	.word	0x40022000
 8002640:	40021000 	.word	0x40021000
 8002644:	080055b5 	.word	0x080055b5
 8002648:	20000018 	.word	0x20000018
 800264c:	20000044 	.word	0x20000044

08002650 <HAL_RCC_GetPCLK1Freq>:
 8002650:	4b04      	ldr	r3, [pc, #16]	; (8002664 <HAL_RCC_GetPCLK1Freq+0x14>)
 8002652:	4a05      	ldr	r2, [pc, #20]	; (8002668 <HAL_RCC_GetPCLK1Freq+0x18>)
 8002654:	685b      	ldr	r3, [r3, #4]
 8002656:	f3c3 2302 	ubfx	r3, r3, #8, #3
 800265a:	5cd3      	ldrb	r3, [r2, r3]
 800265c:	4a03      	ldr	r2, [pc, #12]	; (800266c <HAL_RCC_GetPCLK1Freq+0x1c>)
 800265e:	6810      	ldr	r0, [r2, #0]
 8002660:	40d8      	lsrs	r0, r3
 8002662:	4770      	bx	lr
 8002664:	40021000 	.word	0x40021000
 8002668:	080055c5 	.word	0x080055c5
 800266c:	20000018 	.word	0x20000018

08002670 <HAL_RCC_GetPCLK2Freq>:
 8002670:	4b04      	ldr	r3, [pc, #16]	; (8002684 <HAL_RCC_GetPCLK2Freq+0x14>)
 8002672:	4a05      	ldr	r2, [pc, #20]	; (8002688 <HAL_RCC_GetPCLK2Freq+0x18>)
 8002674:	685b      	ldr	r3, [r3, #4]
 8002676:	f3c3 23c2 	ubfx	r3, r3, #11, #3
 800267a:	5cd3      	ldrb	r3, [r2, r3]
 800267c:	4a03      	ldr	r2, [pc, #12]	; (800268c <HAL_RCC_GetPCLK2Freq+0x1c>)
 800267e:	6810      	ldr	r0, [r2, #0]
 8002680:	40d8      	lsrs	r0, r3
 8002682:	4770      	bx	lr
 8002684:	40021000 	.word	0x40021000
 8002688:	080055c5 	.word	0x080055c5
 800268c:	20000018 	.word	0x20000018

08002690 <HAL_RCC_GetClockConfig>:
 8002690:	230f      	movs	r3, #15
 8002692:	6003      	str	r3, [r0, #0]
 8002694:	4b0b      	ldr	r3, [pc, #44]	; (80026c4 <HAL_RCC_GetClockConfig+0x34>)
 8002696:	685a      	ldr	r2, [r3, #4]
 8002698:	f002 0203 	and.w	r2, r2, #3
 800269c:	6042      	str	r2, [r0, #4]
 800269e:	685a      	ldr	r2, [r3, #4]
 80026a0:	f002 02f0 	and.w	r2, r2, #240	; 0xf0
 80026a4:	6082      	str	r2, [r0, #8]
 80026a6:	685a      	ldr	r2, [r3, #4]
 80026a8:	f402 62e0 	and.w	r2, r2, #1792	; 0x700
 80026ac:	60c2      	str	r2, [r0, #12]
 80026ae:	685b      	ldr	r3, [r3, #4]
 80026b0:	08db      	lsrs	r3, r3, #3
 80026b2:	f403 63e0 	and.w	r3, r3, #1792	; 0x700
 80026b6:	6103      	str	r3, [r0, #16]
 80026b8:	4b03      	ldr	r3, [pc, #12]	; (80026c8 <HAL_RCC_GetClockConfig+0x38>)
 80026ba:	681b      	ldr	r3, [r3, #0]
 80026bc:	f003 0307 	and.w	r3, r3, #7
 80026c0:	600b      	str	r3, [r1, #0]
 80026c2:	4770      	bx	lr
 80026c4:	40021000 	.word	0x40021000
 80026c8:	40022000 	.word	0x40022000

080026cc <SPI_WaitFlagStateUntilTimeout.constprop.6>:
 80026cc:	e92d 41f3 	stmdb	sp!, {r0, r1, r4, r5, r6, r7, r8, lr}
 80026d0:	461c      	mov	r4, r3
 80026d2:	4616      	mov	r6, r2
 80026d4:	460f      	mov	r7, r1
 80026d6:	4605      	mov	r5, r0
 80026d8:	f7ff fa0a 	bl	8001af0 <HAL_GetTick>
 80026dc:	4434      	add	r4, r6
 80026de:	1a24      	subs	r4, r4, r0
 80026e0:	f7ff fa06 	bl	8001af0 <HAL_GetTick>
 80026e4:	4680      	mov	r8, r0
 80026e6:	4b23      	ldr	r3, [pc, #140]	; (8002774 <SPI_WaitFlagStateUntilTimeout.constprop.6+0xa8>)
 80026e8:	681b      	ldr	r3, [r3, #0]
 80026ea:	f3c3 33cb 	ubfx	r3, r3, #15, #12
 80026ee:	4363      	muls	r3, r4
 80026f0:	682a      	ldr	r2, [r5, #0]
 80026f2:	9301      	str	r3, [sp, #4]
 80026f4:	6893      	ldr	r3, [r2, #8]
 80026f6:	ea37 0303 	bics.w	r3, r7, r3
 80026fa:	d001      	beq.n	8002700 <SPI_WaitFlagStateUntilTimeout.constprop.6+0x34>
 80026fc:	2000      	movs	r0, #0
 80026fe:	e02e      	b.n	800275e <SPI_WaitFlagStateUntilTimeout.constprop.6+0x92>
 8002700:	1c73      	adds	r3, r6, #1
 8002702:	d0f7      	beq.n	80026f4 <SPI_WaitFlagStateUntilTimeout.constprop.6+0x28>
 8002704:	f7ff f9f4 	bl	8001af0 <HAL_GetTick>
 8002708:	eba0 0008 	sub.w	r0, r0, r8
 800270c:	42a0      	cmp	r0, r4
 800270e:	d329      	bcc.n	8002764 <SPI_WaitFlagStateUntilTimeout.constprop.6+0x98>
 8002710:	682b      	ldr	r3, [r5, #0]
 8002712:	685a      	ldr	r2, [r3, #4]
 8002714:	f022 02e0 	bic.w	r2, r2, #224	; 0xe0
 8002718:	605a      	str	r2, [r3, #4]
 800271a:	686a      	ldr	r2, [r5, #4]
 800271c:	f5b2 7f82 	cmp.w	r2, #260	; 0x104
 8002720:	d10a      	bne.n	8002738 <SPI_WaitFlagStateUntilTimeout.constprop.6+0x6c>
 8002722:	68aa      	ldr	r2, [r5, #8]
 8002724:	f5b2 4f00 	cmp.w	r2, #32768	; 0x8000
 8002728:	d002      	beq.n	8002730 <SPI_WaitFlagStateUntilTimeout.constprop.6+0x64>
 800272a:	f5b2 6f80 	cmp.w	r2, #1024	; 0x400
 800272e:	d103      	bne.n	8002738 <SPI_WaitFlagStateUntilTimeout.constprop.6+0x6c>
 8002730:	681a      	ldr	r2, [r3, #0]
 8002732:	f022 0240 	bic.w	r2, r2, #64	; 0x40
 8002736:	601a      	str	r2, [r3, #0]
 8002738:	6aaa      	ldr	r2, [r5, #40]	; 0x28
 800273a:	f5b2 5f00 	cmp.w	r2, #8192	; 0x2000
 800273e:	d107      	bne.n	8002750 <SPI_WaitFlagStateUntilTimeout.constprop.6+0x84>
 8002740:	681a      	ldr	r2, [r3, #0]
 8002742:	f422 5200 	bic.w	r2, r2, #8192	; 0x2000
 8002746:	601a      	str	r2, [r3, #0]
 8002748:	681a      	ldr	r2, [r3, #0]
 800274a:	f442 5200 	orr.w	r2, r2, #8192	; 0x2000
 800274e:	601a      	str	r2, [r3, #0]
 8002750:	2301      	movs	r3, #1
 8002752:	f885 3051 	strb.w	r3, [r5, #81]	; 0x51
 8002756:	2300      	movs	r3, #0
 8002758:	2003      	movs	r0, #3
 800275a:	f885 3050 	strb.w	r3, [r5, #80]	; 0x50
 800275e:	b002      	add	sp, #8
 8002760:	e8bd 81f0 	ldmia.w	sp!, {r4, r5, r6, r7, r8, pc}
 8002764:	9b01      	ldr	r3, [sp, #4]
 8002766:	2b00      	cmp	r3, #0
 8002768:	9b01      	ldr	r3, [sp, #4]
 800276a:	bf08      	it	eq
 800276c:	2400      	moveq	r4, #0
 800276e:	3b01      	subs	r3, #1
 8002770:	e7be      	b.n	80026f0 <SPI_WaitFlagStateUntilTimeout.constprop.6+0x24>
 8002772:	bf00      	nop
 8002774:	20000018 	.word	0x20000018

08002778 <SPI_EndRxTxTransaction>:
 8002778:	b510      	push	{r4, lr}
 800277a:	4613      	mov	r3, r2
 800277c:	460a      	mov	r2, r1
 800277e:	2180      	movs	r1, #128	; 0x80
 8002780:	4604      	mov	r4, r0
 8002782:	f7ff ffa3 	bl	80026cc <SPI_WaitFlagStateUntilTimeout.constprop.6>
 8002786:	b120      	cbz	r0, 8002792 <SPI_EndRxTxTransaction+0x1a>
 8002788:	2003      	movs	r0, #3
 800278a:	6d63      	ldr	r3, [r4, #84]	; 0x54
 800278c:	f043 0320 	orr.w	r3, r3, #32
 8002790:	6563      	str	r3, [r4, #84]	; 0x54
 8002792:	bd10      	pop	{r4, pc}

08002794 <HAL_SPI_Init>:
 8002794:	b510      	push	{r4, lr}
 8002796:	4604      	mov	r4, r0
 8002798:	2800      	cmp	r0, #0
 800279a:	d051      	beq.n	8002840 <HAL_SPI_Init+0xac>
 800279c:	6a43      	ldr	r3, [r0, #36]	; 0x24
 800279e:	2b00      	cmp	r3, #0
 80027a0:	d14a      	bne.n	8002838 <HAL_SPI_Init+0xa4>
 80027a2:	6842      	ldr	r2, [r0, #4]
 80027a4:	f5b2 7f82 	cmp.w	r2, #260	; 0x104
 80027a8:	d000      	beq.n	80027ac <HAL_SPI_Init+0x18>
 80027aa:	61c3      	str	r3, [r0, #28]
 80027ac:	2300      	movs	r3, #0
 80027ae:	62a3      	str	r3, [r4, #40]	; 0x28
 80027b0:	f894 3051 	ldrb.w	r3, [r4, #81]	; 0x51
 80027b4:	f003 02ff 	and.w	r2, r3, #255	; 0xff
 80027b8:	b923      	cbnz	r3, 80027c4 <HAL_SPI_Init+0x30>
 80027ba:	f884 2050 	strb.w	r2, [r4, #80]	; 0x50
 80027be:	4620      	mov	r0, r4
 80027c0:	f7fe faac 	bl	8000d1c <HAL_SPI_MspInit>
 80027c4:	2302      	movs	r3, #2
 80027c6:	6822      	ldr	r2, [r4, #0]
 80027c8:	f884 3051 	strb.w	r3, [r4, #81]	; 0x51
 80027cc:	6813      	ldr	r3, [r2, #0]
 80027ce:	68a0      	ldr	r0, [r4, #8]
 80027d0:	f023 0340 	bic.w	r3, r3, #64	; 0x40
 80027d4:	6013      	str	r3, [r2, #0]
 80027d6:	6863      	ldr	r3, [r4, #4]
 80027d8:	f400 4004 	and.w	r0, r0, #33792	; 0x8400
 80027dc:	f403 7382 	and.w	r3, r3, #260	; 0x104
 80027e0:	4303      	orrs	r3, r0
 80027e2:	68e0      	ldr	r0, [r4, #12]
 80027e4:	69a1      	ldr	r1, [r4, #24]
 80027e6:	f400 6000 	and.w	r0, r0, #2048	; 0x800
 80027ea:	4303      	orrs	r3, r0
 80027ec:	6920      	ldr	r0, [r4, #16]
 80027ee:	f000 0002 	and.w	r0, r0, #2
 80027f2:	4303      	orrs	r3, r0
 80027f4:	6960      	ldr	r0, [r4, #20]
 80027f6:	f000 0001 	and.w	r0, r0, #1
 80027fa:	4303      	orrs	r3, r0
 80027fc:	f401 7000 	and.w	r0, r1, #512	; 0x200
 8002800:	4303      	orrs	r3, r0
 8002802:	69e0      	ldr	r0, [r4, #28]
 8002804:	0c09      	lsrs	r1, r1, #16
 8002806:	f000 0038 	and.w	r0, r0, #56	; 0x38
 800280a:	4303      	orrs	r3, r0
 800280c:	6a20      	ldr	r0, [r4, #32]
 800280e:	f001 0104 	and.w	r1, r1, #4
 8002812:	f000 0080 	and.w	r0, r0, #128	; 0x80
 8002816:	4303      	orrs	r3, r0
 8002818:	6aa0      	ldr	r0, [r4, #40]	; 0x28
 800281a:	f400 5000 	and.w	r0, r0, #8192	; 0x2000
 800281e:	4303      	orrs	r3, r0
 8002820:	6013      	str	r3, [r2, #0]
 8002822:	6051      	str	r1, [r2, #4]
 8002824:	69d3      	ldr	r3, [r2, #28]
 8002826:	2000      	movs	r0, #0
 8002828:	f423 6300 	bic.w	r3, r3, #2048	; 0x800
 800282c:	61d3      	str	r3, [r2, #28]
 800282e:	2301      	movs	r3, #1
 8002830:	6560      	str	r0, [r4, #84]	; 0x54
 8002832:	f884 3051 	strb.w	r3, [r4, #81]	; 0x51
 8002836:	bd10      	pop	{r4, pc}
 8002838:	2300      	movs	r3, #0
 800283a:	e9c0 3304 	strd	r3, r3, [r0, #16]
 800283e:	e7b5      	b.n	80027ac <HAL_SPI_Init+0x18>
 8002840:	2001      	movs	r0, #1
 8002842:	e7f8      	b.n	8002836 <HAL_SPI_Init+0xa2>

08002844 <HAL_SPI_TransmitReceive>:
 8002844:	e92d 43f7 	stmdb	sp!, {r0, r1, r2, r4, r5, r6, r7, r8, r9, lr}
 8002848:	461e      	mov	r6, r3
 800284a:	f890 3050 	ldrb.w	r3, [r0, #80]	; 0x50
 800284e:	4604      	mov	r4, r0
 8002850:	2b01      	cmp	r3, #1
 8002852:	460d      	mov	r5, r1
 8002854:	4691      	mov	r9, r2
 8002856:	9f0a      	ldr	r7, [sp, #40]	; 0x28
 8002858:	f000 80e2 	beq.w	8002a20 <HAL_SPI_TransmitReceive+0x1dc>
 800285c:	2301      	movs	r3, #1
 800285e:	f880 3050 	strb.w	r3, [r0, #80]	; 0x50
 8002862:	f7ff f945 	bl	8001af0 <HAL_GetTick>
 8002866:	f894 3051 	ldrb.w	r3, [r4, #81]	; 0x51
 800286a:	4680      	mov	r8, r0
 800286c:	b2db      	uxtb	r3, r3
 800286e:	2b01      	cmp	r3, #1
 8002870:	6861      	ldr	r1, [r4, #4]
 8002872:	d00a      	beq.n	800288a <HAL_SPI_TransmitReceive+0x46>
 8002874:	f5b1 7f82 	cmp.w	r1, #260	; 0x104
 8002878:	f040 80d0 	bne.w	8002a1c <HAL_SPI_TransmitReceive+0x1d8>
 800287c:	68a0      	ldr	r0, [r4, #8]
 800287e:	2800      	cmp	r0, #0
 8002880:	f040 80cc 	bne.w	8002a1c <HAL_SPI_TransmitReceive+0x1d8>
 8002884:	2b04      	cmp	r3, #4
 8002886:	f040 80c9 	bne.w	8002a1c <HAL_SPI_TransmitReceive+0x1d8>
 800288a:	2d00      	cmp	r5, #0
 800288c:	f000 80c4 	beq.w	8002a18 <HAL_SPI_TransmitReceive+0x1d4>
 8002890:	f1b9 0f00 	cmp.w	r9, #0
 8002894:	f000 80c0 	beq.w	8002a18 <HAL_SPI_TransmitReceive+0x1d4>
 8002898:	2e00      	cmp	r6, #0
 800289a:	f000 80bd 	beq.w	8002a18 <HAL_SPI_TransmitReceive+0x1d4>
 800289e:	f894 3051 	ldrb.w	r3, [r4, #81]	; 0x51
 80028a2:	f8c4 9038 	str.w	r9, [r4, #56]	; 0x38
 80028a6:	2b04      	cmp	r3, #4
 80028a8:	bf1c      	itt	ne
 80028aa:	2305      	movne	r3, #5
 80028ac:	f884 3051 	strbne.w	r3, [r4, #81]	; 0x51
 80028b0:	2300      	movs	r3, #0
 80028b2:	6563      	str	r3, [r4, #84]	; 0x54
 80028b4:	e9c4 3310 	strd	r3, r3, [r4, #64]	; 0x40
 80028b8:	6823      	ldr	r3, [r4, #0]
 80028ba:	87e6      	strh	r6, [r4, #62]	; 0x3e
 80028bc:	86e6      	strh	r6, [r4, #54]	; 0x36
 80028be:	681a      	ldr	r2, [r3, #0]
 80028c0:	87a6      	strh	r6, [r4, #60]	; 0x3c
 80028c2:	0650      	lsls	r0, r2, #25
 80028c4:	bf58      	it	pl
 80028c6:	681a      	ldrpl	r2, [r3, #0]
 80028c8:	6325      	str	r5, [r4, #48]	; 0x30
 80028ca:	bf58      	it	pl
 80028cc:	f042 0240 	orrpl.w	r2, r2, #64	; 0x40
 80028d0:	86a6      	strh	r6, [r4, #52]	; 0x34
 80028d2:	bf58      	it	pl
 80028d4:	601a      	strpl	r2, [r3, #0]
 80028d6:	68e2      	ldr	r2, [r4, #12]
 80028d8:	f5b2 6f00 	cmp.w	r2, #2048	; 0x800
 80028dc:	d158      	bne.n	8002990 <HAL_SPI_TransmitReceive+0x14c>
 80028de:	b109      	cbz	r1, 80028e4 <HAL_SPI_TransmitReceive+0xa0>
 80028e0:	2e01      	cmp	r6, #1
 80028e2:	d107      	bne.n	80028f4 <HAL_SPI_TransmitReceive+0xb0>
 80028e4:	f835 2b02 	ldrh.w	r2, [r5], #2
 80028e8:	60da      	str	r2, [r3, #12]
 80028ea:	8ee3      	ldrh	r3, [r4, #54]	; 0x36
 80028ec:	6325      	str	r5, [r4, #48]	; 0x30
 80028ee:	3b01      	subs	r3, #1
 80028f0:	b29b      	uxth	r3, r3
 80028f2:	86e3      	strh	r3, [r4, #54]	; 0x36
 80028f4:	2501      	movs	r5, #1
 80028f6:	8ee3      	ldrh	r3, [r4, #54]	; 0x36
 80028f8:	b29b      	uxth	r3, r3
 80028fa:	b9ab      	cbnz	r3, 8002928 <HAL_SPI_TransmitReceive+0xe4>
 80028fc:	8fe3      	ldrh	r3, [r4, #62]	; 0x3e
 80028fe:	b29b      	uxth	r3, r3
 8002900:	b993      	cbnz	r3, 8002928 <HAL_SPI_TransmitReceive+0xe4>
 8002902:	4642      	mov	r2, r8
 8002904:	4639      	mov	r1, r7
 8002906:	4620      	mov	r0, r4
 8002908:	f7ff ff36 	bl	8002778 <SPI_EndRxTxTransaction>
 800290c:	2800      	cmp	r0, #0
 800290e:	f040 8081 	bne.w	8002a14 <HAL_SPI_TransmitReceive+0x1d0>
 8002912:	68a3      	ldr	r3, [r4, #8]
 8002914:	2b00      	cmp	r3, #0
 8002916:	d132      	bne.n	800297e <HAL_SPI_TransmitReceive+0x13a>
 8002918:	6823      	ldr	r3, [r4, #0]
 800291a:	9001      	str	r0, [sp, #4]
 800291c:	68da      	ldr	r2, [r3, #12]
 800291e:	9201      	str	r2, [sp, #4]
 8002920:	689b      	ldr	r3, [r3, #8]
 8002922:	9301      	str	r3, [sp, #4]
 8002924:	9b01      	ldr	r3, [sp, #4]
 8002926:	e02a      	b.n	800297e <HAL_SPI_TransmitReceive+0x13a>
 8002928:	6822      	ldr	r2, [r4, #0]
 800292a:	6893      	ldr	r3, [r2, #8]
 800292c:	0799      	lsls	r1, r3, #30
 800292e:	d50d      	bpl.n	800294c <HAL_SPI_TransmitReceive+0x108>
 8002930:	8ee3      	ldrh	r3, [r4, #54]	; 0x36
 8002932:	b29b      	uxth	r3, r3
 8002934:	b153      	cbz	r3, 800294c <HAL_SPI_TransmitReceive+0x108>
 8002936:	b14d      	cbz	r5, 800294c <HAL_SPI_TransmitReceive+0x108>
 8002938:	2500      	movs	r5, #0
 800293a:	6b23      	ldr	r3, [r4, #48]	; 0x30
 800293c:	f833 1b02 	ldrh.w	r1, [r3], #2
 8002940:	60d1      	str	r1, [r2, #12]
 8002942:	6323      	str	r3, [r4, #48]	; 0x30
 8002944:	8ee3      	ldrh	r3, [r4, #54]	; 0x36
 8002946:	3b01      	subs	r3, #1
 8002948:	b29b      	uxth	r3, r3
 800294a:	86e3      	strh	r3, [r4, #54]	; 0x36
 800294c:	6893      	ldr	r3, [r2, #8]
 800294e:	07db      	lsls	r3, r3, #31
 8002950:	d50c      	bpl.n	800296c <HAL_SPI_TransmitReceive+0x128>
 8002952:	8fe3      	ldrh	r3, [r4, #62]	; 0x3e
 8002954:	b29b      	uxth	r3, r3
 8002956:	b14b      	cbz	r3, 800296c <HAL_SPI_TransmitReceive+0x128>
 8002958:	2501      	movs	r5, #1
 800295a:	68d2      	ldr	r2, [r2, #12]
 800295c:	6ba3      	ldr	r3, [r4, #56]	; 0x38
 800295e:	f823 2b02 	strh.w	r2, [r3], #2
 8002962:	63a3      	str	r3, [r4, #56]	; 0x38
 8002964:	8fe3      	ldrh	r3, [r4, #62]	; 0x3e
 8002966:	3b01      	subs	r3, #1
 8002968:	b29b      	uxth	r3, r3
 800296a:	87e3      	strh	r3, [r4, #62]	; 0x3e
 800296c:	f7ff f8c0 	bl	8001af0 <HAL_GetTick>
 8002970:	eba0 0008 	sub.w	r0, r0, r8
 8002974:	4287      	cmp	r7, r0
 8002976:	d8be      	bhi.n	80028f6 <HAL_SPI_TransmitReceive+0xb2>
 8002978:	1c7e      	adds	r6, r7, #1
 800297a:	d0bc      	beq.n	80028f6 <HAL_SPI_TransmitReceive+0xb2>
 800297c:	2003      	movs	r0, #3
 800297e:	2301      	movs	r3, #1
 8002980:	f884 3051 	strb.w	r3, [r4, #81]	; 0x51
 8002984:	2300      	movs	r3, #0
 8002986:	f884 3050 	strb.w	r3, [r4, #80]	; 0x50
 800298a:	b003      	add	sp, #12
 800298c:	e8bd 83f0 	ldmia.w	sp!, {r4, r5, r6, r7, r8, r9, pc}
 8002990:	b109      	cbz	r1, 8002996 <HAL_SPI_TransmitReceive+0x152>
 8002992:	2e01      	cmp	r6, #1
 8002994:	d108      	bne.n	80029a8 <HAL_SPI_TransmitReceive+0x164>
 8002996:	782a      	ldrb	r2, [r5, #0]
 8002998:	731a      	strb	r2, [r3, #12]
 800299a:	6b23      	ldr	r3, [r4, #48]	; 0x30
 800299c:	3301      	adds	r3, #1
 800299e:	6323      	str	r3, [r4, #48]	; 0x30
 80029a0:	8ee3      	ldrh	r3, [r4, #54]	; 0x36
 80029a2:	3b01      	subs	r3, #1
 80029a4:	b29b      	uxth	r3, r3
 80029a6:	86e3      	strh	r3, [r4, #54]	; 0x36
 80029a8:	2501      	movs	r5, #1
 80029aa:	8ee3      	ldrh	r3, [r4, #54]	; 0x36
 80029ac:	b29b      	uxth	r3, r3
 80029ae:	b91b      	cbnz	r3, 80029b8 <HAL_SPI_TransmitReceive+0x174>
 80029b0:	8fe3      	ldrh	r3, [r4, #62]	; 0x3e
 80029b2:	b29b      	uxth	r3, r3
 80029b4:	2b00      	cmp	r3, #0
 80029b6:	d0a4      	beq.n	8002902 <HAL_SPI_TransmitReceive+0xbe>
 80029b8:	6822      	ldr	r2, [r4, #0]
 80029ba:	6893      	ldr	r3, [r2, #8]
 80029bc:	0798      	lsls	r0, r3, #30
 80029be:	d50e      	bpl.n	80029de <HAL_SPI_TransmitReceive+0x19a>
 80029c0:	8ee3      	ldrh	r3, [r4, #54]	; 0x36
 80029c2:	b29b      	uxth	r3, r3
 80029c4:	b15b      	cbz	r3, 80029de <HAL_SPI_TransmitReceive+0x19a>
 80029c6:	b155      	cbz	r5, 80029de <HAL_SPI_TransmitReceive+0x19a>
 80029c8:	2500      	movs	r5, #0
 80029ca:	6b23      	ldr	r3, [r4, #48]	; 0x30
 80029cc:	781b      	ldrb	r3, [r3, #0]
 80029ce:	7313      	strb	r3, [r2, #12]
 80029d0:	6b23      	ldr	r3, [r4, #48]	; 0x30
 80029d2:	3301      	adds	r3, #1
 80029d4:	6323      	str	r3, [r4, #48]	; 0x30
 80029d6:	8ee3      	ldrh	r3, [r4, #54]	; 0x36
 80029d8:	3b01      	subs	r3, #1
 80029da:	b29b      	uxth	r3, r3
 80029dc:	86e3      	strh	r3, [r4, #54]	; 0x36
 80029de:	6822      	ldr	r2, [r4, #0]
 80029e0:	6893      	ldr	r3, [r2, #8]
 80029e2:	07d9      	lsls	r1, r3, #31
 80029e4:	d50d      	bpl.n	8002a02 <HAL_SPI_TransmitReceive+0x1be>
 80029e6:	8fe3      	ldrh	r3, [r4, #62]	; 0x3e
 80029e8:	b29b      	uxth	r3, r3
 80029ea:	b153      	cbz	r3, 8002a02 <HAL_SPI_TransmitReceive+0x1be>
 80029ec:	2501      	movs	r5, #1
 80029ee:	68d2      	ldr	r2, [r2, #12]
 80029f0:	6ba3      	ldr	r3, [r4, #56]	; 0x38
 80029f2:	701a      	strb	r2, [r3, #0]
 80029f4:	6ba3      	ldr	r3, [r4, #56]	; 0x38
 80029f6:	3301      	adds	r3, #1
 80029f8:	63a3      	str	r3, [r4, #56]	; 0x38
 80029fa:	8fe3      	ldrh	r3, [r4, #62]	; 0x3e
 80029fc:	3b01      	subs	r3, #1
 80029fe:	b29b      	uxth	r3, r3
 8002a00:	87e3      	strh	r3, [r4, #62]	; 0x3e
 8002a02:	f7ff f875 	bl	8001af0 <HAL_GetTick>
 8002a06:	eba0 0008 	sub.w	r0, r0, r8
 8002a0a:	4287      	cmp	r7, r0
 8002a0c:	d8cd      	bhi.n	80029aa <HAL_SPI_TransmitReceive+0x166>
 8002a0e:	1c7b      	adds	r3, r7, #1
 8002a10:	d0cb      	beq.n	80029aa <HAL_SPI_TransmitReceive+0x166>
 8002a12:	e7b3      	b.n	800297c <HAL_SPI_TransmitReceive+0x138>
 8002a14:	2320      	movs	r3, #32
 8002a16:	6563      	str	r3, [r4, #84]	; 0x54
 8002a18:	2001      	movs	r0, #1
 8002a1a:	e7b0      	b.n	800297e <HAL_SPI_TransmitReceive+0x13a>
 8002a1c:	2002      	movs	r0, #2
 8002a1e:	e7ae      	b.n	800297e <HAL_SPI_TransmitReceive+0x13a>
 8002a20:	2002      	movs	r0, #2
 8002a22:	e7b2      	b.n	800298a <HAL_SPI_TransmitReceive+0x146>

08002a24 <HAL_TIM_Base_MspInit>:
 8002a24:	4770      	bx	lr
	...

08002a28 <HAL_TIM_Base_Start_IT>:
 8002a28:	f890 303d 	ldrb.w	r3, [r0, #61]	; 0x3d
 8002a2c:	2b01      	cmp	r3, #1
 8002a2e:	d120      	bne.n	8002a72 <HAL_TIM_Base_Start_IT+0x4a>
 8002a30:	2302      	movs	r3, #2
 8002a32:	f880 303d 	strb.w	r3, [r0, #61]	; 0x3d
 8002a36:	6803      	ldr	r3, [r0, #0]
 8002a38:	68da      	ldr	r2, [r3, #12]
 8002a3a:	f042 0201 	orr.w	r2, r2, #1
 8002a3e:	60da      	str	r2, [r3, #12]
 8002a40:	4a0d      	ldr	r2, [pc, #52]	; (8002a78 <HAL_TIM_Base_Start_IT+0x50>)
 8002a42:	4293      	cmp	r3, r2
 8002a44:	d00a      	beq.n	8002a5c <HAL_TIM_Base_Start_IT+0x34>
 8002a46:	f1b3 4f80 	cmp.w	r3, #1073741824	; 0x40000000
 8002a4a:	d007      	beq.n	8002a5c <HAL_TIM_Base_Start_IT+0x34>
 8002a4c:	f5a2 3294 	sub.w	r2, r2, #75776	; 0x12800
 8002a50:	4293      	cmp	r3, r2
 8002a52:	d003      	beq.n	8002a5c <HAL_TIM_Base_Start_IT+0x34>
 8002a54:	f502 6280 	add.w	r2, r2, #1024	; 0x400
 8002a58:	4293      	cmp	r3, r2
 8002a5a:	d104      	bne.n	8002a66 <HAL_TIM_Base_Start_IT+0x3e>
 8002a5c:	689a      	ldr	r2, [r3, #8]
 8002a5e:	f002 0207 	and.w	r2, r2, #7
 8002a62:	2a06      	cmp	r2, #6
 8002a64:	d003      	beq.n	8002a6e <HAL_TIM_Base_Start_IT+0x46>
 8002a66:	681a      	ldr	r2, [r3, #0]
 8002a68:	f042 0201 	orr.w	r2, r2, #1
 8002a6c:	601a      	str	r2, [r3, #0]
 8002a6e:	2000      	movs	r0, #0
 8002a70:	4770      	bx	lr
 8002a72:	2001      	movs	r0, #1
 8002a74:	4770      	bx	lr
 8002a76:	bf00      	nop
 8002a78:	40012c00 	.word	0x40012c00

08002a7c <HAL_TIM_OC_DelayElapsedCallback>:
 8002a7c:	4770      	bx	lr

08002a7e <HAL_TIM_IC_CaptureCallback>:
 8002a7e:	4770      	bx	lr

08002a80 <HAL_TIM_PWM_PulseFinishedCallback>:
 8002a80:	4770      	bx	lr

08002a82 <HAL_TIM_TriggerCallback>:
 8002a82:	4770      	bx	lr

08002a84 <HAL_TIM_IRQHandler>:
 8002a84:	6803      	ldr	r3, [r0, #0]
 8002a86:	b510      	push	{r4, lr}
 8002a88:	691a      	ldr	r2, [r3, #16]
 8002a8a:	4604      	mov	r4, r0
 8002a8c:	0791      	lsls	r1, r2, #30
 8002a8e:	d50e      	bpl.n	8002aae <HAL_TIM_IRQHandler+0x2a>
 8002a90:	68da      	ldr	r2, [r3, #12]
 8002a92:	0792      	lsls	r2, r2, #30
 8002a94:	d50b      	bpl.n	8002aae <HAL_TIM_IRQHandler+0x2a>
 8002a96:	f06f 0202 	mvn.w	r2, #2
 8002a9a:	611a      	str	r2, [r3, #16]
 8002a9c:	2201      	movs	r2, #1
 8002a9e:	699b      	ldr	r3, [r3, #24]
 8002aa0:	7702      	strb	r2, [r0, #28]
 8002aa2:	079b      	lsls	r3, r3, #30
 8002aa4:	d077      	beq.n	8002b96 <HAL_TIM_IRQHandler+0x112>
 8002aa6:	f7ff ffea 	bl	8002a7e <HAL_TIM_IC_CaptureCallback>
 8002aaa:	2300      	movs	r3, #0
 8002aac:	7723      	strb	r3, [r4, #28]
 8002aae:	6823      	ldr	r3, [r4, #0]
 8002ab0:	691a      	ldr	r2, [r3, #16]
 8002ab2:	0750      	lsls	r0, r2, #29
 8002ab4:	d510      	bpl.n	8002ad8 <HAL_TIM_IRQHandler+0x54>
 8002ab6:	68da      	ldr	r2, [r3, #12]
 8002ab8:	0751      	lsls	r1, r2, #29
 8002aba:	d50d      	bpl.n	8002ad8 <HAL_TIM_IRQHandler+0x54>
 8002abc:	f06f 0204 	mvn.w	r2, #4
 8002ac0:	611a      	str	r2, [r3, #16]
 8002ac2:	2202      	movs	r2, #2
 8002ac4:	699b      	ldr	r3, [r3, #24]
 8002ac6:	7722      	strb	r2, [r4, #28]
 8002ac8:	f413 7f40 	tst.w	r3, #768	; 0x300
 8002acc:	4620      	mov	r0, r4
 8002ace:	d068      	beq.n	8002ba2 <HAL_TIM_IRQHandler+0x11e>
 8002ad0:	f7ff ffd5 	bl	8002a7e <HAL_TIM_IC_CaptureCallback>
 8002ad4:	2300      	movs	r3, #0
 8002ad6:	7723      	strb	r3, [r4, #28]
 8002ad8:	6823      	ldr	r3, [r4, #0]
 8002ada:	691a      	ldr	r2, [r3, #16]
 8002adc:	0712      	lsls	r2, r2, #28
 8002ade:	d50f      	bpl.n	8002b00 <HAL_TIM_IRQHandler+0x7c>
 8002ae0:	68da      	ldr	r2, [r3, #12]
 8002ae2:	0710      	lsls	r0, r2, #28
 8002ae4:	d50c      	bpl.n	8002b00 <HAL_TIM_IRQHandler+0x7c>
 8002ae6:	f06f 0208 	mvn.w	r2, #8
 8002aea:	611a      	str	r2, [r3, #16]
 8002aec:	2204      	movs	r2, #4
 8002aee:	69db      	ldr	r3, [r3, #28]
 8002af0:	7722      	strb	r2, [r4, #28]
 8002af2:	0799      	lsls	r1, r3, #30
 8002af4:	4620      	mov	r0, r4
 8002af6:	d05a      	beq.n	8002bae <HAL_TIM_IRQHandler+0x12a>
 8002af8:	f7ff ffc1 	bl	8002a7e <HAL_TIM_IC_CaptureCallback>
 8002afc:	2300      	movs	r3, #0
 8002afe:	7723      	strb	r3, [r4, #28]
 8002b00:	6823      	ldr	r3, [r4, #0]
 8002b02:	691a      	ldr	r2, [r3, #16]
 8002b04:	06d2      	lsls	r2, r2, #27
 8002b06:	d510      	bpl.n	8002b2a <HAL_TIM_IRQHandler+0xa6>
 8002b08:	68da      	ldr	r2, [r3, #12]
 8002b0a:	06d0      	lsls	r0, r2, #27
 8002b0c:	d50d      	bpl.n	8002b2a <HAL_TIM_IRQHandler+0xa6>
 8002b0e:	f06f 0210 	mvn.w	r2, #16
 8002b12:	611a      	str	r2, [r3, #16]
 8002b14:	2208      	movs	r2, #8
 8002b16:	69db      	ldr	r3, [r3, #28]
 8002b18:	7722      	strb	r2, [r4, #28]
 8002b1a:	f413 7f40 	tst.w	r3, #768	; 0x300
 8002b1e:	4620      	mov	r0, r4
 8002b20:	d04b      	beq.n	8002bba <HAL_TIM_IRQHandler+0x136>
 8002b22:	f7ff ffac 	bl	8002a7e <HAL_TIM_IC_CaptureCallback>
 8002b26:	2300      	movs	r3, #0
 8002b28:	7723      	strb	r3, [r4, #28]
 8002b2a:	6823      	ldr	r3, [r4, #0]
 8002b2c:	691a      	ldr	r2, [r3, #16]
 8002b2e:	07d1      	lsls	r1, r2, #31
 8002b30:	d508      	bpl.n	8002b44 <HAL_TIM_IRQHandler+0xc0>
 8002b32:	68da      	ldr	r2, [r3, #12]
 8002b34:	07d2      	lsls	r2, r2, #31
 8002b36:	d505      	bpl.n	8002b44 <HAL_TIM_IRQHandler+0xc0>
 8002b38:	f06f 0201 	mvn.w	r2, #1
 8002b3c:	4620      	mov	r0, r4
 8002b3e:	611a      	str	r2, [r3, #16]
 8002b40:	f7fe f888 	bl	8000c54 <HAL_TIM_PeriodElapsedCallback>
 8002b44:	6823      	ldr	r3, [r4, #0]
 8002b46:	691a      	ldr	r2, [r3, #16]
 8002b48:	0610      	lsls	r0, r2, #24
 8002b4a:	d508      	bpl.n	8002b5e <HAL_TIM_IRQHandler+0xda>
 8002b4c:	68da      	ldr	r2, [r3, #12]
 8002b4e:	0611      	lsls	r1, r2, #24
 8002b50:	d505      	bpl.n	8002b5e <HAL_TIM_IRQHandler+0xda>
 8002b52:	f06f 0280 	mvn.w	r2, #128	; 0x80
 8002b56:	4620      	mov	r0, r4
 8002b58:	611a      	str	r2, [r3, #16]
 8002b5a:	f000 f89a 	bl	8002c92 <HAL_TIMEx_BreakCallback>
 8002b5e:	6823      	ldr	r3, [r4, #0]
 8002b60:	691a      	ldr	r2, [r3, #16]
 8002b62:	0652      	lsls	r2, r2, #25
 8002b64:	d508      	bpl.n	8002b78 <HAL_TIM_IRQHandler+0xf4>
 8002b66:	68da      	ldr	r2, [r3, #12]
 8002b68:	0650      	lsls	r0, r2, #25
 8002b6a:	d505      	bpl.n	8002b78 <HAL_TIM_IRQHandler+0xf4>
 8002b6c:	f06f 0240 	mvn.w	r2, #64	; 0x40
 8002b70:	4620      	mov	r0, r4
 8002b72:	611a      	str	r2, [r3, #16]
 8002b74:	f7ff ff85 	bl	8002a82 <HAL_TIM_TriggerCallback>
 8002b78:	6823      	ldr	r3, [r4, #0]
 8002b7a:	691a      	ldr	r2, [r3, #16]
 8002b7c:	0691      	lsls	r1, r2, #26
 8002b7e:	d522      	bpl.n	8002bc6 <HAL_TIM_IRQHandler+0x142>
 8002b80:	68da      	ldr	r2, [r3, #12]
 8002b82:	0692      	lsls	r2, r2, #26
 8002b84:	d51f      	bpl.n	8002bc6 <HAL_TIM_IRQHandler+0x142>
 8002b86:	f06f 0220 	mvn.w	r2, #32
 8002b8a:	4620      	mov	r0, r4
 8002b8c:	e8bd 4010 	ldmia.w	sp!, {r4, lr}
 8002b90:	611a      	str	r2, [r3, #16]
 8002b92:	f000 b87d 	b.w	8002c90 <HAL_TIMEx_CommutCallback>
 8002b96:	f7ff ff71 	bl	8002a7c <HAL_TIM_OC_DelayElapsedCallback>
 8002b9a:	4620      	mov	r0, r4
 8002b9c:	f7ff ff70 	bl	8002a80 <HAL_TIM_PWM_PulseFinishedCallback>
 8002ba0:	e783      	b.n	8002aaa <HAL_TIM_IRQHandler+0x26>
 8002ba2:	f7ff ff6b 	bl	8002a7c <HAL_TIM_OC_DelayElapsedCallback>
 8002ba6:	4620      	mov	r0, r4
 8002ba8:	f7ff ff6a 	bl	8002a80 <HAL_TIM_PWM_PulseFinishedCallback>
 8002bac:	e792      	b.n	8002ad4 <HAL_TIM_IRQHandler+0x50>
 8002bae:	f7ff ff65 	bl	8002a7c <HAL_TIM_OC_DelayElapsedCallback>
 8002bb2:	4620      	mov	r0, r4
 8002bb4:	f7ff ff64 	bl	8002a80 <HAL_TIM_PWM_PulseFinishedCallback>
 8002bb8:	e7a0      	b.n	8002afc <HAL_TIM_IRQHandler+0x78>
 8002bba:	f7ff ff5f 	bl	8002a7c <HAL_TIM_OC_DelayElapsedCallback>
 8002bbe:	4620      	mov	r0, r4
 8002bc0:	f7ff ff5e 	bl	8002a80 <HAL_TIM_PWM_PulseFinishedCallback>
 8002bc4:	e7af      	b.n	8002b26 <HAL_TIM_IRQHandler+0xa2>
 8002bc6:	bd10      	pop	{r4, pc}

08002bc8 <TIM_Base_SetConfig>:
 8002bc8:	4a1a      	ldr	r2, [pc, #104]	; (8002c34 <TIM_Base_SetConfig+0x6c>)
 8002bca:	6803      	ldr	r3, [r0, #0]
 8002bcc:	4290      	cmp	r0, r2
 8002bce:	d00a      	beq.n	8002be6 <TIM_Base_SetConfig+0x1e>
 8002bd0:	f1b0 4f80 	cmp.w	r0, #1073741824	; 0x40000000
 8002bd4:	d007      	beq.n	8002be6 <TIM_Base_SetConfig+0x1e>
 8002bd6:	f5a2 3294 	sub.w	r2, r2, #75776	; 0x12800
 8002bda:	4290      	cmp	r0, r2
 8002bdc:	d003      	beq.n	8002be6 <TIM_Base_SetConfig+0x1e>
 8002bde:	f502 6280 	add.w	r2, r2, #1024	; 0x400
 8002be2:	4290      	cmp	r0, r2
 8002be4:	d115      	bne.n	8002c12 <TIM_Base_SetConfig+0x4a>
 8002be6:	684a      	ldr	r2, [r1, #4]
 8002be8:	f023 0370 	bic.w	r3, r3, #112	; 0x70
 8002bec:	4313      	orrs	r3, r2
 8002bee:	4a11      	ldr	r2, [pc, #68]	; (8002c34 <TIM_Base_SetConfig+0x6c>)
 8002bf0:	4290      	cmp	r0, r2
 8002bf2:	d00a      	beq.n	8002c0a <TIM_Base_SetConfig+0x42>
 8002bf4:	f1b0 4f80 	cmp.w	r0, #1073741824	; 0x40000000
 8002bf8:	d007      	beq.n	8002c0a <TIM_Base_SetConfig+0x42>
 8002bfa:	f5a2 3294 	sub.w	r2, r2, #75776	; 0x12800
 8002bfe:	4290      	cmp	r0, r2
 8002c00:	d003      	beq.n	8002c0a <TIM_Base_SetConfig+0x42>
 8002c02:	f502 6280 	add.w	r2, r2, #1024	; 0x400
 8002c06:	4290      	cmp	r0, r2
 8002c08:	d103      	bne.n	8002c12 <TIM_Base_SetConfig+0x4a>
 8002c0a:	68ca      	ldr	r2, [r1, #12]
 8002c0c:	f423 7340 	bic.w	r3, r3, #768	; 0x300
 8002c10:	4313      	orrs	r3, r2
 8002c12:	694a      	ldr	r2, [r1, #20]
 8002c14:	f023 0380 	bic.w	r3, r3, #128	; 0x80
 8002c18:	4313      	orrs	r3, r2
 8002c1a:	6003      	str	r3, [r0, #0]
 8002c1c:	688b      	ldr	r3, [r1, #8]
 8002c1e:	62c3      	str	r3, [r0, #44]	; 0x2c
 8002c20:	680b      	ldr	r3, [r1, #0]
 8002c22:	6283      	str	r3, [r0, #40]	; 0x28
 8002c24:	4b03      	ldr	r3, [pc, #12]	; (8002c34 <TIM_Base_SetConfig+0x6c>)
 8002c26:	4298      	cmp	r0, r3
 8002c28:	bf04      	itt	eq
 8002c2a:	690b      	ldreq	r3, [r1, #16]
 8002c2c:	6303      	streq	r3, [r0, #48]	; 0x30
 8002c2e:	2301      	movs	r3, #1
 8002c30:	6143      	str	r3, [r0, #20]
 8002c32:	4770      	bx	lr
 8002c34:	40012c00 	.word	0x40012c00

08002c38 <HAL_TIM_Base_Init>:
 8002c38:	b510      	push	{r4, lr}
 8002c3a:	4604      	mov	r4, r0
 8002c3c:	b330      	cbz	r0, 8002c8c <HAL_TIM_Base_Init+0x54>
 8002c3e:	f890 303d 	ldrb.w	r3, [r0, #61]	; 0x3d
 8002c42:	f003 02ff 	and.w	r2, r3, #255	; 0xff
 8002c46:	b91b      	cbnz	r3, 8002c50 <HAL_TIM_Base_Init+0x18>
 8002c48:	f880 203c 	strb.w	r2, [r0, #60]	; 0x3c
 8002c4c:	f7ff feea 	bl	8002a24 <HAL_TIM_Base_MspInit>
 8002c50:	2302      	movs	r3, #2
 8002c52:	6820      	ldr	r0, [r4, #0]
 8002c54:	f884 303d 	strb.w	r3, [r4, #61]	; 0x3d
 8002c58:	1d21      	adds	r1, r4, #4
 8002c5a:	f7ff ffb5 	bl	8002bc8 <TIM_Base_SetConfig>
 8002c5e:	2301      	movs	r3, #1
 8002c60:	2000      	movs	r0, #0
 8002c62:	f884 3046 	strb.w	r3, [r4, #70]	; 0x46
 8002c66:	f884 303e 	strb.w	r3, [r4, #62]	; 0x3e
 8002c6a:	f884 303f 	strb.w	r3, [r4, #63]	; 0x3f
 8002c6e:	f884 3040 	strb.w	r3, [r4, #64]	; 0x40
 8002c72:	f884 3041 	strb.w	r3, [r4, #65]	; 0x41
 8002c76:	f884 3042 	strb.w	r3, [r4, #66]	; 0x42
 8002c7a:	f884 3043 	strb.w	r3, [r4, #67]	; 0x43
 8002c7e:	f884 3044 	strb.w	r3, [r4, #68]	; 0x44
 8002c82:	f884 3045 	strb.w	r3, [r4, #69]	; 0x45
 8002c86:	f884 303d 	strb.w	r3, [r4, #61]	; 0x3d
 8002c8a:	bd10      	pop	{r4, pc}
 8002c8c:	2001      	movs	r0, #1
 8002c8e:	e7fc      	b.n	8002c8a <HAL_TIM_Base_Init+0x52>

08002c90 <HAL_TIMEx_CommutCallback>:
 8002c90:	4770      	bx	lr

08002c92 <HAL_TIMEx_BreakCallback>:
 8002c92:	4770      	bx	lr

08002c94 <osKernelInitialize>:
 8002c94:	f3ef 8305 	mrs	r3, IPSR
 8002c98:	b113      	cbz	r3, 8002ca0 <osKernelInitialize+0xc>
 8002c9a:	f06f 0005 	mvn.w	r0, #5
 8002c9e:	4770      	bx	lr
 8002ca0:	f3ef 8310 	mrs	r3, PRIMASK
 8002ca4:	2b00      	cmp	r3, #0
 8002ca6:	d1f8      	bne.n	8002c9a <osKernelInitialize+0x6>
 8002ca8:	4b07      	ldr	r3, [pc, #28]	; (8002cc8 <osKernelInitialize+0x34>)
 8002caa:	6818      	ldr	r0, [r3, #0]
 8002cac:	2802      	cmp	r0, #2
 8002cae:	d106      	bne.n	8002cbe <osKernelInitialize+0x2a>
 8002cb0:	f3ef 8311 	mrs	r3, BASEPRI
 8002cb4:	2b00      	cmp	r3, #0
 8002cb6:	d1f0      	bne.n	8002c9a <osKernelInitialize+0x6>
 8002cb8:	f04f 30ff 	mov.w	r0, #4294967295
 8002cbc:	4770      	bx	lr
 8002cbe:	2800      	cmp	r0, #0
 8002cc0:	d1fa      	bne.n	8002cb8 <osKernelInitialize+0x24>
 8002cc2:	2201      	movs	r2, #1
 8002cc4:	601a      	str	r2, [r3, #0]
 8002cc6:	4770      	bx	lr
 8002cc8:	200002fc 	.word	0x200002fc

08002ccc <osKernelStart>:
 8002ccc:	b510      	push	{r4, lr}
 8002cce:	f3ef 8305 	mrs	r3, IPSR
 8002cd2:	b113      	cbz	r3, 8002cda <osKernelStart+0xe>
 8002cd4:	f06f 0005 	mvn.w	r0, #5
 8002cd8:	bd10      	pop	{r4, pc}
 8002cda:	f3ef 8410 	mrs	r4, PRIMASK
 8002cde:	2c00      	cmp	r4, #0
 8002ce0:	d1f8      	bne.n	8002cd4 <osKernelStart+0x8>
 8002ce2:	4b09      	ldr	r3, [pc, #36]	; (8002d08 <osKernelStart+0x3c>)
 8002ce4:	681a      	ldr	r2, [r3, #0]
 8002ce6:	2a02      	cmp	r2, #2
 8002ce8:	d106      	bne.n	8002cf8 <osKernelStart+0x2c>
 8002cea:	f3ef 8311 	mrs	r3, BASEPRI
 8002cee:	2b00      	cmp	r3, #0
 8002cf0:	d1f0      	bne.n	8002cd4 <osKernelStart+0x8>
 8002cf2:	f04f 30ff 	mov.w	r0, #4294967295
 8002cf6:	e7ef      	b.n	8002cd8 <osKernelStart+0xc>
 8002cf8:	2a01      	cmp	r2, #1
 8002cfa:	d1fa      	bne.n	8002cf2 <osKernelStart+0x26>
 8002cfc:	2202      	movs	r2, #2
 8002cfe:	601a      	str	r2, [r3, #0]
 8002d00:	f000 fd9a 	bl	8003838 <vTaskStartScheduler>
 8002d04:	4620      	mov	r0, r4
 8002d06:	e7e7      	b.n	8002cd8 <osKernelStart+0xc>
 8002d08:	200002fc 	.word	0x200002fc

08002d0c <osThreadNew>:
 8002d0c:	b5f0      	push	{r4, r5, r6, r7, lr}
 8002d0e:	4614      	mov	r4, r2
 8002d10:	2200      	movs	r2, #0
 8002d12:	b087      	sub	sp, #28
 8002d14:	460b      	mov	r3, r1
 8002d16:	9205      	str	r2, [sp, #20]
 8002d18:	f3ef 8205 	mrs	r2, IPSR
 8002d1c:	bb62      	cbnz	r2, 8002d78 <osThreadNew+0x6c>
 8002d1e:	f3ef 8210 	mrs	r2, PRIMASK
 8002d22:	bb4a      	cbnz	r2, 8002d78 <osThreadNew+0x6c>
 8002d24:	4a26      	ldr	r2, [pc, #152]	; (8002dc0 <osThreadNew+0xb4>)
 8002d26:	6812      	ldr	r2, [r2, #0]
 8002d28:	2a02      	cmp	r2, #2
 8002d2a:	d102      	bne.n	8002d32 <osThreadNew+0x26>
 8002d2c:	f3ef 8211 	mrs	r2, BASEPRI
 8002d30:	bb12      	cbnz	r2, 8002d78 <osThreadNew+0x6c>
 8002d32:	b308      	cbz	r0, 8002d78 <osThreadNew+0x6c>
 8002d34:	2200      	movs	r2, #0
 8002d36:	f88d 2013 	strb.w	r2, [sp, #19]
 8002d3a:	2c00      	cmp	r4, #0
 8002d3c:	d039      	beq.n	8002db2 <osThreadNew+0xa6>
 8002d3e:	6821      	ldr	r1, [r4, #0]
 8002d40:	b909      	cbnz	r1, 8002d46 <osThreadNew+0x3a>
 8002d42:	f10d 0113 	add.w	r1, sp, #19
 8002d46:	69a5      	ldr	r5, [r4, #24]
 8002d48:	2d00      	cmp	r5, #0
 8002d4a:	bf08      	it	eq
 8002d4c:	2518      	moveq	r5, #24
 8002d4e:	1e6a      	subs	r2, r5, #1
 8002d50:	2a37      	cmp	r2, #55	; 0x37
 8002d52:	462f      	mov	r7, r5
 8002d54:	d832      	bhi.n	8002dbc <osThreadNew+0xb0>
 8002d56:	6862      	ldr	r2, [r4, #4]
 8002d58:	07d2      	lsls	r2, r2, #31
 8002d5a:	d42f      	bmi.n	8002dbc <osThreadNew+0xb0>
 8002d5c:	6966      	ldr	r6, [r4, #20]
 8002d5e:	b176      	cbz	r6, 8002d7e <osThreadNew+0x72>
 8002d60:	08b2      	lsrs	r2, r6, #2
 8002d62:	e9d4 ce02 	ldrd	ip, lr, [r4, #8]
 8002d66:	f1bc 0f00 	cmp.w	ip, #0
 8002d6a:	d00a      	beq.n	8002d82 <osThreadNew+0x76>
 8002d6c:	f1be 0f5b 	cmp.w	lr, #91	; 0x5b
 8002d70:	d902      	bls.n	8002d78 <osThreadNew+0x6c>
 8002d72:	6924      	ldr	r4, [r4, #16]
 8002d74:	b104      	cbz	r4, 8002d78 <osThreadNew+0x6c>
 8002d76:	b9ae      	cbnz	r6, 8002da4 <osThreadNew+0x98>
 8002d78:	9805      	ldr	r0, [sp, #20]
 8002d7a:	b007      	add	sp, #28
 8002d7c:	bdf0      	pop	{r4, r5, r6, r7, pc}
 8002d7e:	2280      	movs	r2, #128	; 0x80
 8002d80:	e7ef      	b.n	8002d62 <osThreadNew+0x56>
 8002d82:	f1be 0f00 	cmp.w	lr, #0
 8002d86:	d1f7      	bne.n	8002d78 <osThreadNew+0x6c>
 8002d88:	6924      	ldr	r4, [r4, #16]
 8002d8a:	2c00      	cmp	r4, #0
 8002d8c:	d1f4      	bne.n	8002d78 <osThreadNew+0x6c>
 8002d8e:	ac05      	add	r4, sp, #20
 8002d90:	e9cd 7400 	strd	r7, r4, [sp]
 8002d94:	b292      	uxth	r2, r2
 8002d96:	f000 fd22 	bl	80037de <xTaskCreate>
 8002d9a:	2801      	cmp	r0, #1
 8002d9c:	bf1c      	itt	ne
 8002d9e:	2300      	movne	r3, #0
 8002da0:	9305      	strne	r3, [sp, #20]
 8002da2:	e7e9      	b.n	8002d78 <osThreadNew+0x6c>
 8002da4:	e9cd 4c01 	strd	r4, ip, [sp, #4]
 8002da8:	9500      	str	r5, [sp, #0]
 8002daa:	f000 fce1 	bl	8003770 <xTaskCreateStatic>
 8002dae:	9005      	str	r0, [sp, #20]
 8002db0:	e7e2      	b.n	8002d78 <osThreadNew+0x6c>
 8002db2:	2718      	movs	r7, #24
 8002db4:	2280      	movs	r2, #128	; 0x80
 8002db6:	f10d 0113 	add.w	r1, sp, #19
 8002dba:	e7e8      	b.n	8002d8e <osThreadNew+0x82>
 8002dbc:	2000      	movs	r0, #0
 8002dbe:	e7dc      	b.n	8002d7a <osThreadNew+0x6e>
 8002dc0:	200002fc 	.word	0x200002fc

08002dc4 <osDelay>:
 8002dc4:	b508      	push	{r3, lr}
 8002dc6:	f3ef 8305 	mrs	r3, IPSR
 8002dca:	b113      	cbz	r3, 8002dd2 <osDelay+0xe>
 8002dcc:	f06f 0005 	mvn.w	r0, #5
 8002dd0:	bd08      	pop	{r3, pc}
 8002dd2:	f3ef 8310 	mrs	r3, PRIMASK
 8002dd6:	2b00      	cmp	r3, #0
 8002dd8:	d1f8      	bne.n	8002dcc <osDelay+0x8>
 8002dda:	4b07      	ldr	r3, [pc, #28]	; (8002df8 <osDelay+0x34>)
 8002ddc:	681b      	ldr	r3, [r3, #0]
 8002dde:	2b02      	cmp	r3, #2
 8002de0:	d103      	bne.n	8002dea <osDelay+0x26>
 8002de2:	f3ef 8311 	mrs	r3, BASEPRI
 8002de6:	2b00      	cmp	r3, #0
 8002de8:	d1f0      	bne.n	8002dcc <osDelay+0x8>
 8002dea:	2800      	cmp	r0, #0
 8002dec:	d0f0      	beq.n	8002dd0 <osDelay+0xc>
 8002dee:	f000 fe79 	bl	8003ae4 <vTaskDelay>
 8002df2:	2000      	movs	r0, #0
 8002df4:	e7ec      	b.n	8002dd0 <osDelay+0xc>
 8002df6:	bf00      	nop
 8002df8:	200002fc 	.word	0x200002fc

08002dfc <vApplicationGetIdleTaskMemory>:
 8002dfc:	4b03      	ldr	r3, [pc, #12]	; (8002e0c <vApplicationGetIdleTaskMemory+0x10>)
 8002dfe:	6003      	str	r3, [r0, #0]
 8002e00:	4b03      	ldr	r3, [pc, #12]	; (8002e10 <vApplicationGetIdleTaskMemory+0x14>)
 8002e02:	600b      	str	r3, [r1, #0]
 8002e04:	2380      	movs	r3, #128	; 0x80
 8002e06:	6013      	str	r3, [r2, #0]
 8002e08:	4770      	bx	lr
 8002e0a:	bf00      	nop
 8002e0c:	200002a0 	.word	0x200002a0
 8002e10:	200000a0 	.word	0x200000a0

08002e14 <vApplicationGetTimerTaskMemory>:
 8002e14:	4b03      	ldr	r3, [pc, #12]	; (8002e24 <vApplicationGetTimerTaskMemory+0x10>)
 8002e16:	6003      	str	r3, [r0, #0]
 8002e18:	4b03      	ldr	r3, [pc, #12]	; (8002e28 <vApplicationGetTimerTaskMemory+0x14>)
 8002e1a:	600b      	str	r3, [r1, #0]
 8002e1c:	f44f 7380 	mov.w	r3, #256	; 0x100
 8002e20:	6013      	str	r3, [r2, #0]
 8002e22:	4770      	bx	lr
 8002e24:	20000700 	.word	0x20000700
 8002e28:	20000300 	.word	0x20000300

08002e2c <vListInitialise>:
 8002e2c:	f04f 32ff 	mov.w	r2, #4294967295
 8002e30:	f100 0308 	add.w	r3, r0, #8
 8002e34:	6043      	str	r3, [r0, #4]
 8002e36:	e9c0 2302 	strd	r2, r3, [r0, #8]
 8002e3a:	6103      	str	r3, [r0, #16]
 8002e3c:	2300      	movs	r3, #0
 8002e3e:	6003      	str	r3, [r0, #0]
 8002e40:	4770      	bx	lr

08002e42 <vListInitialiseItem>:
 8002e42:	2300      	movs	r3, #0
 8002e44:	6103      	str	r3, [r0, #16]
 8002e46:	4770      	bx	lr

08002e48 <vListInsertEnd>:
 8002e48:	6843      	ldr	r3, [r0, #4]
 8002e4a:	689a      	ldr	r2, [r3, #8]
 8002e4c:	604b      	str	r3, [r1, #4]
 8002e4e:	608a      	str	r2, [r1, #8]
 8002e50:	689a      	ldr	r2, [r3, #8]
 8002e52:	6051      	str	r1, [r2, #4]
 8002e54:	6099      	str	r1, [r3, #8]
 8002e56:	6803      	ldr	r3, [r0, #0]
 8002e58:	6108      	str	r0, [r1, #16]
 8002e5a:	3301      	adds	r3, #1
 8002e5c:	6003      	str	r3, [r0, #0]
 8002e5e:	4770      	bx	lr

08002e60 <vListInsert>:
 8002e60:	680a      	ldr	r2, [r1, #0]
 8002e62:	b530      	push	{r4, r5, lr}
 8002e64:	1c53      	adds	r3, r2, #1
 8002e66:	d10a      	bne.n	8002e7e <vListInsert+0x1e>
 8002e68:	6903      	ldr	r3, [r0, #16]
 8002e6a:	685a      	ldr	r2, [r3, #4]
 8002e6c:	604a      	str	r2, [r1, #4]
 8002e6e:	6091      	str	r1, [r2, #8]
 8002e70:	608b      	str	r3, [r1, #8]
 8002e72:	6059      	str	r1, [r3, #4]
 8002e74:	6803      	ldr	r3, [r0, #0]
 8002e76:	6108      	str	r0, [r1, #16]
 8002e78:	3301      	adds	r3, #1
 8002e7a:	6003      	str	r3, [r0, #0]
 8002e7c:	bd30      	pop	{r4, r5, pc}
 8002e7e:	f100 0308 	add.w	r3, r0, #8
 8002e82:	685c      	ldr	r4, [r3, #4]
 8002e84:	6825      	ldr	r5, [r4, #0]
 8002e86:	4295      	cmp	r5, r2
 8002e88:	d8ef      	bhi.n	8002e6a <vListInsert+0xa>
 8002e8a:	4623      	mov	r3, r4
 8002e8c:	e7f9      	b.n	8002e82 <vListInsert+0x22>

08002e8e <uxListRemove>:
 8002e8e:	6903      	ldr	r3, [r0, #16]
 8002e90:	e9d0 1201 	ldrd	r1, r2, [r0, #4]
 8002e94:	608a      	str	r2, [r1, #8]
 8002e96:	6882      	ldr	r2, [r0, #8]
 8002e98:	6051      	str	r1, [r2, #4]
 8002e9a:	6859      	ldr	r1, [r3, #4]
 8002e9c:	4281      	cmp	r1, r0
 8002e9e:	bf08      	it	eq
 8002ea0:	605a      	streq	r2, [r3, #4]
 8002ea2:	2200      	movs	r2, #0
 8002ea4:	6102      	str	r2, [r0, #16]
 8002ea6:	681a      	ldr	r2, [r3, #0]
 8002ea8:	3a01      	subs	r2, #1
 8002eaa:	601a      	str	r2, [r3, #0]
 8002eac:	6818      	ldr	r0, [r3, #0]
 8002eae:	4770      	bx	lr

08002eb0 <prvIsQueueEmpty>:
 8002eb0:	b510      	push	{r4, lr}
 8002eb2:	4604      	mov	r4, r0
 8002eb4:	f001 f9be 	bl	8004234 <vPortEnterCritical>
 8002eb8:	6ba4      	ldr	r4, [r4, #56]	; 0x38
 8002eba:	f001 f9dd 	bl	8004278 <vPortExitCritical>
 8002ebe:	fab4 f084 	clz	r0, r4
 8002ec2:	0940      	lsrs	r0, r0, #5
 8002ec4:	bd10      	pop	{r4, pc}

08002ec6 <prvCopyDataToQueue>:
 8002ec6:	b570      	push	{r4, r5, r6, lr}
 8002ec8:	4615      	mov	r5, r2
 8002eca:	6c02      	ldr	r2, [r0, #64]	; 0x40
 8002ecc:	4604      	mov	r4, r0
 8002ece:	6b86      	ldr	r6, [r0, #56]	; 0x38
 8002ed0:	b942      	cbnz	r2, 8002ee4 <prvCopyDataToQueue+0x1e>
 8002ed2:	6805      	ldr	r5, [r0, #0]
 8002ed4:	b99d      	cbnz	r5, 8002efe <prvCopyDataToQueue+0x38>
 8002ed6:	6840      	ldr	r0, [r0, #4]
 8002ed8:	f000 ff3c 	bl	8003d54 <xTaskPriorityDisinherit>
 8002edc:	6065      	str	r5, [r4, #4]
 8002ede:	3601      	adds	r6, #1
 8002ee0:	63a6      	str	r6, [r4, #56]	; 0x38
 8002ee2:	bd70      	pop	{r4, r5, r6, pc}
 8002ee4:	b96d      	cbnz	r5, 8002f02 <prvCopyDataToQueue+0x3c>
 8002ee6:	6880      	ldr	r0, [r0, #8]
 8002ee8:	f001 fbcf 	bl	800468a <memcpy>
 8002eec:	68a3      	ldr	r3, [r4, #8]
 8002eee:	6c22      	ldr	r2, [r4, #64]	; 0x40
 8002ef0:	4413      	add	r3, r2
 8002ef2:	6862      	ldr	r2, [r4, #4]
 8002ef4:	60a3      	str	r3, [r4, #8]
 8002ef6:	4293      	cmp	r3, r2
 8002ef8:	d301      	bcc.n	8002efe <prvCopyDataToQueue+0x38>
 8002efa:	6823      	ldr	r3, [r4, #0]
 8002efc:	60a3      	str	r3, [r4, #8]
 8002efe:	2000      	movs	r0, #0
 8002f00:	e7ed      	b.n	8002ede <prvCopyDataToQueue+0x18>
 8002f02:	68c0      	ldr	r0, [r0, #12]
 8002f04:	f001 fbc1 	bl	800468a <memcpy>
 8002f08:	6c23      	ldr	r3, [r4, #64]	; 0x40
 8002f0a:	68e2      	ldr	r2, [r4, #12]
 8002f0c:	425b      	negs	r3, r3
 8002f0e:	6821      	ldr	r1, [r4, #0]
 8002f10:	441a      	add	r2, r3
 8002f12:	428a      	cmp	r2, r1
 8002f14:	60e2      	str	r2, [r4, #12]
 8002f16:	bf3e      	ittt	cc
 8002f18:	6862      	ldrcc	r2, [r4, #4]
 8002f1a:	189b      	addcc	r3, r3, r2
 8002f1c:	60e3      	strcc	r3, [r4, #12]
 8002f1e:	2d02      	cmp	r5, #2
 8002f20:	d1ed      	bne.n	8002efe <prvCopyDataToQueue+0x38>
 8002f22:	b10e      	cbz	r6, 8002f28 <prvCopyDataToQueue+0x62>
 8002f24:	3e01      	subs	r6, #1
 8002f26:	e7ea      	b.n	8002efe <prvCopyDataToQueue+0x38>
 8002f28:	4630      	mov	r0, r6
 8002f2a:	e7d8      	b.n	8002ede <prvCopyDataToQueue+0x18>

08002f2c <prvCopyDataFromQueue>:
 8002f2c:	4603      	mov	r3, r0
 8002f2e:	6c1a      	ldr	r2, [r3, #64]	; 0x40
 8002f30:	b410      	push	{r4}
 8002f32:	4608      	mov	r0, r1
 8002f34:	b162      	cbz	r2, 8002f50 <prvCopyDataFromQueue+0x24>
 8002f36:	68d9      	ldr	r1, [r3, #12]
 8002f38:	685c      	ldr	r4, [r3, #4]
 8002f3a:	4411      	add	r1, r2
 8002f3c:	42a1      	cmp	r1, r4
 8002f3e:	60d9      	str	r1, [r3, #12]
 8002f40:	bf28      	it	cs
 8002f42:	6819      	ldrcs	r1, [r3, #0]
 8002f44:	bc10      	pop	{r4}
 8002f46:	bf28      	it	cs
 8002f48:	60d9      	strcs	r1, [r3, #12]
 8002f4a:	68d9      	ldr	r1, [r3, #12]
 8002f4c:	f001 bb9d 	b.w	800468a <memcpy>
 8002f50:	bc10      	pop	{r4}
 8002f52:	4770      	bx	lr

08002f54 <prvUnlockQueue>:
 8002f54:	b570      	push	{r4, r5, r6, lr}
 8002f56:	4604      	mov	r4, r0
 8002f58:	f001 f96c 	bl	8004234 <vPortEnterCritical>
 8002f5c:	f894 5045 	ldrb.w	r5, [r4, #69]	; 0x45
 8002f60:	f104 0624 	add.w	r6, r4, #36	; 0x24
 8002f64:	b26d      	sxtb	r5, r5
 8002f66:	2d00      	cmp	r5, #0
 8002f68:	dc14      	bgt.n	8002f94 <prvUnlockQueue+0x40>
 8002f6a:	23ff      	movs	r3, #255	; 0xff
 8002f6c:	f884 3045 	strb.w	r3, [r4, #69]	; 0x45
 8002f70:	f001 f982 	bl	8004278 <vPortExitCritical>
 8002f74:	f001 f95e 	bl	8004234 <vPortEnterCritical>
 8002f78:	f894 5044 	ldrb.w	r5, [r4, #68]	; 0x44
 8002f7c:	f104 0610 	add.w	r6, r4, #16
 8002f80:	b26d      	sxtb	r5, r5
 8002f82:	2d00      	cmp	r5, #0
 8002f84:	dc12      	bgt.n	8002fac <prvUnlockQueue+0x58>
 8002f86:	23ff      	movs	r3, #255	; 0xff
 8002f88:	f884 3044 	strb.w	r3, [r4, #68]	; 0x44
 8002f8c:	e8bd 4070 	ldmia.w	sp!, {r4, r5, r6, lr}
 8002f90:	f001 b972 	b.w	8004278 <vPortExitCritical>
 8002f94:	6a63      	ldr	r3, [r4, #36]	; 0x24
 8002f96:	2b00      	cmp	r3, #0
 8002f98:	d0e7      	beq.n	8002f6a <prvUnlockQueue+0x16>
 8002f9a:	4630      	mov	r0, r6
 8002f9c:	f000 fe3c 	bl	8003c18 <xTaskRemoveFromEventList>
 8002fa0:	b108      	cbz	r0, 8002fa6 <prvUnlockQueue+0x52>
 8002fa2:	f000 fec1 	bl	8003d28 <vTaskMissedYield>
 8002fa6:	3d01      	subs	r5, #1
 8002fa8:	b26d      	sxtb	r5, r5
 8002faa:	e7dc      	b.n	8002f66 <prvUnlockQueue+0x12>
 8002fac:	6923      	ldr	r3, [r4, #16]
 8002fae:	2b00      	cmp	r3, #0
 8002fb0:	d0e9      	beq.n	8002f86 <prvUnlockQueue+0x32>
 8002fb2:	4630      	mov	r0, r6
 8002fb4:	f000 fe30 	bl	8003c18 <xTaskRemoveFromEventList>
 8002fb8:	b108      	cbz	r0, 8002fbe <prvUnlockQueue+0x6a>
 8002fba:	f000 feb5 	bl	8003d28 <vTaskMissedYield>
 8002fbe:	3d01      	subs	r5, #1
 8002fc0:	b26d      	sxtb	r5, r5
 8002fc2:	e7de      	b.n	8002f82 <prvUnlockQueue+0x2e>

08002fc4 <xQueueGenericReset>:
 8002fc4:	b538      	push	{r3, r4, r5, lr}
 8002fc6:	460d      	mov	r5, r1
 8002fc8:	4604      	mov	r4, r0
 8002fca:	b940      	cbnz	r0, 8002fde <xQueueGenericReset+0x1a>
 8002fcc:	f04f 0350 	mov.w	r3, #80	; 0x50
 8002fd0:	f383 8811 	msr	BASEPRI, r3
 8002fd4:	f3bf 8f6f 	isb	sy
 8002fd8:	f3bf 8f4f 	dsb	sy
 8002fdc:	e7fe      	b.n	8002fdc <xQueueGenericReset+0x18>
 8002fde:	f001 f929 	bl	8004234 <vPortEnterCritical>
 8002fe2:	e9d4 300f 	ldrd	r3, r0, [r4, #60]	; 0x3c
 8002fe6:	4343      	muls	r3, r0
 8002fe8:	6822      	ldr	r2, [r4, #0]
 8002fea:	18d1      	adds	r1, r2, r3
 8002fec:	1a1b      	subs	r3, r3, r0
 8002fee:	4413      	add	r3, r2
 8002ff0:	6061      	str	r1, [r4, #4]
 8002ff2:	60e3      	str	r3, [r4, #12]
 8002ff4:	2100      	movs	r1, #0
 8002ff6:	23ff      	movs	r3, #255	; 0xff
 8002ff8:	63a1      	str	r1, [r4, #56]	; 0x38
 8002ffa:	60a2      	str	r2, [r4, #8]
 8002ffc:	f884 3044 	strb.w	r3, [r4, #68]	; 0x44
 8003000:	f884 3045 	strb.w	r3, [r4, #69]	; 0x45
 8003004:	b995      	cbnz	r5, 800302c <xQueueGenericReset+0x68>
 8003006:	6923      	ldr	r3, [r4, #16]
 8003008:	b163      	cbz	r3, 8003024 <xQueueGenericReset+0x60>
 800300a:	f104 0010 	add.w	r0, r4, #16
 800300e:	f000 fe03 	bl	8003c18 <xTaskRemoveFromEventList>
 8003012:	b138      	cbz	r0, 8003024 <xQueueGenericReset+0x60>
 8003014:	f04f 5280 	mov.w	r2, #268435456	; 0x10000000
 8003018:	4b09      	ldr	r3, [pc, #36]	; (8003040 <xQueueGenericReset+0x7c>)
 800301a:	601a      	str	r2, [r3, #0]
 800301c:	f3bf 8f4f 	dsb	sy
 8003020:	f3bf 8f6f 	isb	sy
 8003024:	f001 f928 	bl	8004278 <vPortExitCritical>
 8003028:	2001      	movs	r0, #1
 800302a:	bd38      	pop	{r3, r4, r5, pc}
 800302c:	f104 0010 	add.w	r0, r4, #16
 8003030:	f7ff fefc 	bl	8002e2c <vListInitialise>
 8003034:	f104 0024 	add.w	r0, r4, #36	; 0x24
 8003038:	f7ff fef8 	bl	8002e2c <vListInitialise>
 800303c:	e7f2      	b.n	8003024 <xQueueGenericReset+0x60>
 800303e:	bf00      	nop
 8003040:	e000ed04 	.word	0xe000ed04

08003044 <xQueueGenericCreateStatic>:
 8003044:	b513      	push	{r0, r1, r4, lr}
 8003046:	461c      	mov	r4, r3
 8003048:	b940      	cbnz	r0, 800305c <xQueueGenericCreateStatic+0x18>
 800304a:	f04f 0350 	mov.w	r3, #80	; 0x50
 800304e:	f383 8811 	msr	BASEPRI, r3
 8003052:	f3bf 8f6f 	isb	sy
 8003056:	f3bf 8f4f 	dsb	sy
 800305a:	e7fe      	b.n	800305a <xQueueGenericCreateStatic+0x16>
 800305c:	b943      	cbnz	r3, 8003070 <xQueueGenericCreateStatic+0x2c>
 800305e:	f04f 0350 	mov.w	r3, #80	; 0x50
 8003062:	f383 8811 	msr	BASEPRI, r3
 8003066:	f3bf 8f6f 	isb	sy
 800306a:	f3bf 8f4f 	dsb	sy
 800306e:	e7fe      	b.n	800306e <xQueueGenericCreateStatic+0x2a>
 8003070:	b14a      	cbz	r2, 8003086 <xQueueGenericCreateStatic+0x42>
 8003072:	b991      	cbnz	r1, 800309a <xQueueGenericCreateStatic+0x56>
 8003074:	f04f 0350 	mov.w	r3, #80	; 0x50
 8003078:	f383 8811 	msr	BASEPRI, r3
 800307c:	f3bf 8f6f 	isb	sy
 8003080:	f3bf 8f4f 	dsb	sy
 8003084:	e7fe      	b.n	8003084 <xQueueGenericCreateStatic+0x40>
 8003086:	b141      	cbz	r1, 800309a <xQueueGenericCreateStatic+0x56>
 8003088:	f04f 0350 	mov.w	r3, #80	; 0x50
 800308c:	f383 8811 	msr	BASEPRI, r3
 8003090:	f3bf 8f6f 	isb	sy
 8003094:	f3bf 8f4f 	dsb	sy
 8003098:	e7fe      	b.n	8003098 <xQueueGenericCreateStatic+0x54>
 800309a:	2350      	movs	r3, #80	; 0x50
 800309c:	9301      	str	r3, [sp, #4]
 800309e:	9b01      	ldr	r3, [sp, #4]
 80030a0:	2b50      	cmp	r3, #80	; 0x50
 80030a2:	d008      	beq.n	80030b6 <xQueueGenericCreateStatic+0x72>
 80030a4:	f04f 0350 	mov.w	r3, #80	; 0x50
 80030a8:	f383 8811 	msr	BASEPRI, r3
 80030ac:	f3bf 8f6f 	isb	sy
 80030b0:	f3bf 8f4f 	dsb	sy
 80030b4:	e7fe      	b.n	80030b4 <xQueueGenericCreateStatic+0x70>
 80030b6:	2301      	movs	r3, #1
 80030b8:	2900      	cmp	r1, #0
 80030ba:	bf08      	it	eq
 80030bc:	4622      	moveq	r2, r4
 80030be:	e9c4 010f 	strd	r0, r1, [r4, #60]	; 0x3c
 80030c2:	f884 3046 	strb.w	r3, [r4, #70]	; 0x46
 80030c6:	4619      	mov	r1, r3
 80030c8:	6022      	str	r2, [r4, #0]
 80030ca:	4620      	mov	r0, r4
 80030cc:	f7ff ff7a 	bl	8002fc4 <xQueueGenericReset>
 80030d0:	4620      	mov	r0, r4
 80030d2:	f89d 3010 	ldrb.w	r3, [sp, #16]
 80030d6:	f884 304c 	strb.w	r3, [r4, #76]	; 0x4c
 80030da:	b002      	add	sp, #8
 80030dc:	bd10      	pop	{r4, pc}
	...

080030e0 <xQueueGenericSend>:
 80030e0:	e92d 47ff 	stmdb	sp!, {r0, r1, r2, r3, r4, r5, r6, r7, r8, r9, sl, lr}
 80030e4:	4688      	mov	r8, r1
 80030e6:	9201      	str	r2, [sp, #4]
 80030e8:	461f      	mov	r7, r3
 80030ea:	4604      	mov	r4, r0
 80030ec:	b940      	cbnz	r0, 8003100 <xQueueGenericSend+0x20>
 80030ee:	f04f 0350 	mov.w	r3, #80	; 0x50
 80030f2:	f383 8811 	msr	BASEPRI, r3
 80030f6:	f3bf 8f6f 	isb	sy
 80030fa:	f3bf 8f4f 	dsb	sy
 80030fe:	e7fe      	b.n	80030fe <xQueueGenericSend+0x1e>
 8003100:	b951      	cbnz	r1, 8003118 <xQueueGenericSend+0x38>
 8003102:	6c03      	ldr	r3, [r0, #64]	; 0x40
 8003104:	b143      	cbz	r3, 8003118 <xQueueGenericSend+0x38>
 8003106:	f04f 0350 	mov.w	r3, #80	; 0x50
 800310a:	f383 8811 	msr	BASEPRI, r3
 800310e:	f3bf 8f6f 	isb	sy
 8003112:	f3bf 8f4f 	dsb	sy
 8003116:	e7fe      	b.n	8003116 <xQueueGenericSend+0x36>
 8003118:	2f02      	cmp	r7, #2
 800311a:	d10b      	bne.n	8003134 <xQueueGenericSend+0x54>
 800311c:	6be3      	ldr	r3, [r4, #60]	; 0x3c
 800311e:	2b01      	cmp	r3, #1
 8003120:	d008      	beq.n	8003134 <xQueueGenericSend+0x54>
 8003122:	f04f 0350 	mov.w	r3, #80	; 0x50
 8003126:	f383 8811 	msr	BASEPRI, r3
 800312a:	f3bf 8f6f 	isb	sy
 800312e:	f3bf 8f4f 	dsb	sy
 8003132:	e7fe      	b.n	8003132 <xQueueGenericSend+0x52>
 8003134:	f000 fdfe 	bl	8003d34 <xTaskGetSchedulerState>
 8003138:	b950      	cbnz	r0, 8003150 <xQueueGenericSend+0x70>
 800313a:	9e01      	ldr	r6, [sp, #4]
 800313c:	b14e      	cbz	r6, 8003152 <xQueueGenericSend+0x72>
 800313e:	f04f 0350 	mov.w	r3, #80	; 0x50
 8003142:	f383 8811 	msr	BASEPRI, r3
 8003146:	f3bf 8f6f 	isb	sy
 800314a:	f3bf 8f4f 	dsb	sy
 800314e:	e7fe      	b.n	800314e <xQueueGenericSend+0x6e>
 8003150:	2600      	movs	r6, #0
 8003152:	f04f 0900 	mov.w	r9, #0
 8003156:	f8df a0e8 	ldr.w	sl, [pc, #232]	; 8003240 <xQueueGenericSend+0x160>
 800315a:	e037      	b.n	80031cc <xQueueGenericSend+0xec>
 800315c:	9d01      	ldr	r5, [sp, #4]
 800315e:	b91d      	cbnz	r5, 8003168 <xQueueGenericSend+0x88>
 8003160:	f001 f88a 	bl	8004278 <vPortExitCritical>
 8003164:	2000      	movs	r0, #0
 8003166:	e050      	b.n	800320a <xQueueGenericSend+0x12a>
 8003168:	b916      	cbnz	r6, 8003170 <xQueueGenericSend+0x90>
 800316a:	a802      	add	r0, sp, #8
 800316c:	f000 fd94 	bl	8003c98 <vTaskInternalSetTimeOutState>
 8003170:	f001 f882 	bl	8004278 <vPortExitCritical>
 8003174:	f000 fba4 	bl	80038c0 <vTaskSuspendAll>
 8003178:	f001 f85c 	bl	8004234 <vPortEnterCritical>
 800317c:	f894 3044 	ldrb.w	r3, [r4, #68]	; 0x44
 8003180:	2bff      	cmp	r3, #255	; 0xff
 8003182:	bf08      	it	eq
 8003184:	f884 9044 	strbeq.w	r9, [r4, #68]	; 0x44
 8003188:	f894 3045 	ldrb.w	r3, [r4, #69]	; 0x45
 800318c:	2bff      	cmp	r3, #255	; 0xff
 800318e:	bf08      	it	eq
 8003190:	f884 9045 	strbeq.w	r9, [r4, #69]	; 0x45
 8003194:	f001 f870 	bl	8004278 <vPortExitCritical>
 8003198:	a901      	add	r1, sp, #4
 800319a:	a802      	add	r0, sp, #8
 800319c:	f000 fd88 	bl	8003cb0 <xTaskCheckForTimeOut>
 80031a0:	2800      	cmp	r0, #0
 80031a2:	d146      	bne.n	8003232 <xQueueGenericSend+0x152>
 80031a4:	f001 f846 	bl	8004234 <vPortEnterCritical>
 80031a8:	6ba2      	ldr	r2, [r4, #56]	; 0x38
 80031aa:	6be3      	ldr	r3, [r4, #60]	; 0x3c
 80031ac:	429a      	cmp	r2, r3
 80031ae:	d12f      	bne.n	8003210 <xQueueGenericSend+0x130>
 80031b0:	f001 f862 	bl	8004278 <vPortExitCritical>
 80031b4:	9901      	ldr	r1, [sp, #4]
 80031b6:	f104 0010 	add.w	r0, r4, #16
 80031ba:	f000 fcf3 	bl	8003ba4 <vTaskPlaceOnEventList>
 80031be:	4620      	mov	r0, r4
 80031c0:	f7ff fec8 	bl	8002f54 <prvUnlockQueue>
 80031c4:	f000 fc1a 	bl	80039fc <xTaskResumeAll>
 80031c8:	b350      	cbz	r0, 8003220 <xQueueGenericSend+0x140>
 80031ca:	2601      	movs	r6, #1
 80031cc:	f001 f832 	bl	8004234 <vPortEnterCritical>
 80031d0:	6ba2      	ldr	r2, [r4, #56]	; 0x38
 80031d2:	6be3      	ldr	r3, [r4, #60]	; 0x3c
 80031d4:	429a      	cmp	r2, r3
 80031d6:	d301      	bcc.n	80031dc <xQueueGenericSend+0xfc>
 80031d8:	2f02      	cmp	r7, #2
 80031da:	d1bf      	bne.n	800315c <xQueueGenericSend+0x7c>
 80031dc:	463a      	mov	r2, r7
 80031de:	4641      	mov	r1, r8
 80031e0:	4620      	mov	r0, r4
 80031e2:	f7ff fe70 	bl	8002ec6 <prvCopyDataToQueue>
 80031e6:	6a63      	ldr	r3, [r4, #36]	; 0x24
 80031e8:	b11b      	cbz	r3, 80031f2 <xQueueGenericSend+0x112>
 80031ea:	f104 0024 	add.w	r0, r4, #36	; 0x24
 80031ee:	f000 fd13 	bl	8003c18 <xTaskRemoveFromEventList>
 80031f2:	b138      	cbz	r0, 8003204 <xQueueGenericSend+0x124>
 80031f4:	f04f 5280 	mov.w	r2, #268435456	; 0x10000000
 80031f8:	4b11      	ldr	r3, [pc, #68]	; (8003240 <xQueueGenericSend+0x160>)
 80031fa:	601a      	str	r2, [r3, #0]
 80031fc:	f3bf 8f4f 	dsb	sy
 8003200:	f3bf 8f6f 	isb	sy
 8003204:	f001 f838 	bl	8004278 <vPortExitCritical>
 8003208:	2001      	movs	r0, #1
 800320a:	b004      	add	sp, #16
 800320c:	e8bd 87f0 	ldmia.w	sp!, {r4, r5, r6, r7, r8, r9, sl, pc}
 8003210:	f001 f832 	bl	8004278 <vPortExitCritical>
 8003214:	4620      	mov	r0, r4
 8003216:	f7ff fe9d 	bl	8002f54 <prvUnlockQueue>
 800321a:	f000 fbef 	bl	80039fc <xTaskResumeAll>
 800321e:	e7d4      	b.n	80031ca <xQueueGenericSend+0xea>
 8003220:	f04f 5380 	mov.w	r3, #268435456	; 0x10000000
 8003224:	f8ca 3000 	str.w	r3, [sl]
 8003228:	f3bf 8f4f 	dsb	sy
 800322c:	f3bf 8f6f 	isb	sy
 8003230:	e7cb      	b.n	80031ca <xQueueGenericSend+0xea>
 8003232:	4620      	mov	r0, r4
 8003234:	f7ff fe8e 	bl	8002f54 <prvUnlockQueue>
 8003238:	f000 fbe0 	bl	80039fc <xTaskResumeAll>
 800323c:	e792      	b.n	8003164 <xQueueGenericSend+0x84>
 800323e:	bf00      	nop
 8003240:	e000ed04 	.word	0xe000ed04

08003244 <xQueueGenericSendFromISR>:
 8003244:	e92d 43f8 	stmdb	sp!, {r3, r4, r5, r6, r7, r8, r9, lr}
 8003248:	4689      	mov	r9, r1
 800324a:	4690      	mov	r8, r2
 800324c:	461f      	mov	r7, r3
 800324e:	4604      	mov	r4, r0
 8003250:	b940      	cbnz	r0, 8003264 <xQueueGenericSendFromISR+0x20>
 8003252:	f04f 0350 	mov.w	r3, #80	; 0x50
 8003256:	f383 8811 	msr	BASEPRI, r3
 800325a:	f3bf 8f6f 	isb	sy
 800325e:	f3bf 8f4f 	dsb	sy
 8003262:	e7fe      	b.n	8003262 <xQueueGenericSendFromISR+0x1e>
 8003264:	b951      	cbnz	r1, 800327c <xQueueGenericSendFromISR+0x38>
 8003266:	6c03      	ldr	r3, [r0, #64]	; 0x40
 8003268:	b143      	cbz	r3, 800327c <xQueueGenericSendFromISR+0x38>
 800326a:	f04f 0350 	mov.w	r3, #80	; 0x50
 800326e:	f383 8811 	msr	BASEPRI, r3
 8003272:	f3bf 8f6f 	isb	sy
 8003276:	f3bf 8f4f 	dsb	sy
 800327a:	e7fe      	b.n	800327a <xQueueGenericSendFromISR+0x36>
 800327c:	2f02      	cmp	r7, #2
 800327e:	d10b      	bne.n	8003298 <xQueueGenericSendFromISR+0x54>
 8003280:	6be3      	ldr	r3, [r4, #60]	; 0x3c
 8003282:	2b01      	cmp	r3, #1
 8003284:	d008      	beq.n	8003298 <xQueueGenericSendFromISR+0x54>
 8003286:	f04f 0350 	mov.w	r3, #80	; 0x50
 800328a:	f383 8811 	msr	BASEPRI, r3
 800328e:	f3bf 8f6f 	isb	sy
 8003292:	f3bf 8f4f 	dsb	sy
 8003296:	e7fe      	b.n	8003296 <xQueueGenericSendFromISR+0x52>
 8003298:	f001 f8ae 	bl	80043f8 <vPortValidateInterruptPriority>
 800329c:	f3ef 8611 	mrs	r6, BASEPRI
 80032a0:	f04f 0350 	mov.w	r3, #80	; 0x50
 80032a4:	f383 8811 	msr	BASEPRI, r3
 80032a8:	f3bf 8f6f 	isb	sy
 80032ac:	f3bf 8f4f 	dsb	sy
 80032b0:	6ba2      	ldr	r2, [r4, #56]	; 0x38
 80032b2:	6be3      	ldr	r3, [r4, #60]	; 0x3c
 80032b4:	429a      	cmp	r2, r3
 80032b6:	d301      	bcc.n	80032bc <xQueueGenericSendFromISR+0x78>
 80032b8:	2f02      	cmp	r7, #2
 80032ba:	d122      	bne.n	8003302 <xQueueGenericSendFromISR+0xbe>
 80032bc:	f894 5045 	ldrb.w	r5, [r4, #69]	; 0x45
 80032c0:	463a      	mov	r2, r7
 80032c2:	b26d      	sxtb	r5, r5
 80032c4:	4649      	mov	r1, r9
 80032c6:	4620      	mov	r0, r4
 80032c8:	f7ff fdfd 	bl	8002ec6 <prvCopyDataToQueue>
 80032cc:	1c6b      	adds	r3, r5, #1
 80032ce:	d113      	bne.n	80032f8 <xQueueGenericSendFromISR+0xb4>
 80032d0:	6a63      	ldr	r3, [r4, #36]	; 0x24
 80032d2:	b90b      	cbnz	r3, 80032d8 <xQueueGenericSendFromISR+0x94>
 80032d4:	2001      	movs	r0, #1
 80032d6:	e00b      	b.n	80032f0 <xQueueGenericSendFromISR+0xac>
 80032d8:	f104 0024 	add.w	r0, r4, #36	; 0x24
 80032dc:	f000 fc9c 	bl	8003c18 <xTaskRemoveFromEventList>
 80032e0:	2800      	cmp	r0, #0
 80032e2:	d0f7      	beq.n	80032d4 <xQueueGenericSendFromISR+0x90>
 80032e4:	f1b8 0f00 	cmp.w	r8, #0
 80032e8:	d0f4      	beq.n	80032d4 <xQueueGenericSendFromISR+0x90>
 80032ea:	2001      	movs	r0, #1
 80032ec:	f8c8 0000 	str.w	r0, [r8]
 80032f0:	f386 8811 	msr	BASEPRI, r6
 80032f4:	e8bd 83f8 	ldmia.w	sp!, {r3, r4, r5, r6, r7, r8, r9, pc}
 80032f8:	3501      	adds	r5, #1
 80032fa:	b26d      	sxtb	r5, r5
 80032fc:	f884 5045 	strb.w	r5, [r4, #69]	; 0x45
 8003300:	e7e8      	b.n	80032d4 <xQueueGenericSendFromISR+0x90>
 8003302:	2000      	movs	r0, #0
 8003304:	e7f4      	b.n	80032f0 <xQueueGenericSendFromISR+0xac>
	...

08003308 <xQueueReceive>:
 8003308:	e92d 43f0 	stmdb	sp!, {r4, r5, r6, r7, r8, r9, lr}
 800330c:	b085      	sub	sp, #20
 800330e:	460f      	mov	r7, r1
 8003310:	9201      	str	r2, [sp, #4]
 8003312:	4604      	mov	r4, r0
 8003314:	b940      	cbnz	r0, 8003328 <xQueueReceive+0x20>
 8003316:	f04f 0350 	mov.w	r3, #80	; 0x50
 800331a:	f383 8811 	msr	BASEPRI, r3
 800331e:	f3bf 8f6f 	isb	sy
 8003322:	f3bf 8f4f 	dsb	sy
 8003326:	e7fe      	b.n	8003326 <xQueueReceive+0x1e>
 8003328:	b951      	cbnz	r1, 8003340 <xQueueReceive+0x38>
 800332a:	6c03      	ldr	r3, [r0, #64]	; 0x40
 800332c:	b143      	cbz	r3, 8003340 <xQueueReceive+0x38>
 800332e:	f04f 0350 	mov.w	r3, #80	; 0x50
 8003332:	f383 8811 	msr	BASEPRI, r3
 8003336:	f3bf 8f6f 	isb	sy
 800333a:	f3bf 8f4f 	dsb	sy
 800333e:	e7fe      	b.n	800333e <xQueueReceive+0x36>
 8003340:	f000 fcf8 	bl	8003d34 <xTaskGetSchedulerState>
 8003344:	b950      	cbnz	r0, 800335c <xQueueReceive+0x54>
 8003346:	9e01      	ldr	r6, [sp, #4]
 8003348:	b14e      	cbz	r6, 800335e <xQueueReceive+0x56>
 800334a:	f04f 0350 	mov.w	r3, #80	; 0x50
 800334e:	f383 8811 	msr	BASEPRI, r3
 8003352:	f3bf 8f6f 	isb	sy
 8003356:	f3bf 8f4f 	dsb	sy
 800335a:	e7fe      	b.n	800335a <xQueueReceive+0x52>
 800335c:	2600      	movs	r6, #0
 800335e:	f04f 0800 	mov.w	r8, #0
 8003362:	f8df 90e0 	ldr.w	r9, [pc, #224]	; 8003444 <xQueueReceive+0x13c>
 8003366:	e03b      	b.n	80033e0 <xQueueReceive+0xd8>
 8003368:	9d01      	ldr	r5, [sp, #4]
 800336a:	b91d      	cbnz	r5, 8003374 <xQueueReceive+0x6c>
 800336c:	f000 ff84 	bl	8004278 <vPortExitCritical>
 8003370:	2000      	movs	r0, #0
 8003372:	e052      	b.n	800341a <xQueueReceive+0x112>
 8003374:	b916      	cbnz	r6, 800337c <xQueueReceive+0x74>
 8003376:	a802      	add	r0, sp, #8
 8003378:	f000 fc8e 	bl	8003c98 <vTaskInternalSetTimeOutState>
 800337c:	f000 ff7c 	bl	8004278 <vPortExitCritical>
 8003380:	f000 fa9e 	bl	80038c0 <vTaskSuspendAll>
 8003384:	f000 ff56 	bl	8004234 <vPortEnterCritical>
 8003388:	f894 3044 	ldrb.w	r3, [r4, #68]	; 0x44
 800338c:	2bff      	cmp	r3, #255	; 0xff
 800338e:	bf08      	it	eq
 8003390:	f884 8044 	strbeq.w	r8, [r4, #68]	; 0x44
 8003394:	f894 3045 	ldrb.w	r3, [r4, #69]	; 0x45
 8003398:	2bff      	cmp	r3, #255	; 0xff
 800339a:	bf08      	it	eq
 800339c:	f884 8045 	strbeq.w	r8, [r4, #69]	; 0x45
 80033a0:	f000 ff6a 	bl	8004278 <vPortExitCritical>
 80033a4:	a901      	add	r1, sp, #4
 80033a6:	a802      	add	r0, sp, #8
 80033a8:	f000 fc82 	bl	8003cb0 <xTaskCheckForTimeOut>
 80033ac:	2800      	cmp	r0, #0
 80033ae:	d13d      	bne.n	800342c <xQueueReceive+0x124>
 80033b0:	4620      	mov	r0, r4
 80033b2:	f7ff fd7d 	bl	8002eb0 <prvIsQueueEmpty>
 80033b6:	b398      	cbz	r0, 8003420 <xQueueReceive+0x118>
 80033b8:	9901      	ldr	r1, [sp, #4]
 80033ba:	f104 0024 	add.w	r0, r4, #36	; 0x24
 80033be:	f000 fbf1 	bl	8003ba4 <vTaskPlaceOnEventList>
 80033c2:	4620      	mov	r0, r4
 80033c4:	f7ff fdc6 	bl	8002f54 <prvUnlockQueue>
 80033c8:	f000 fb18 	bl	80039fc <xTaskResumeAll>
 80033cc:	b938      	cbnz	r0, 80033de <xQueueReceive+0xd6>
 80033ce:	f04f 5380 	mov.w	r3, #268435456	; 0x10000000
 80033d2:	f8c9 3000 	str.w	r3, [r9]
 80033d6:	f3bf 8f4f 	dsb	sy
 80033da:	f3bf 8f6f 	isb	sy
 80033de:	2601      	movs	r6, #1
 80033e0:	f000 ff28 	bl	8004234 <vPortEnterCritical>
 80033e4:	6ba5      	ldr	r5, [r4, #56]	; 0x38
 80033e6:	2d00      	cmp	r5, #0
 80033e8:	d0be      	beq.n	8003368 <xQueueReceive+0x60>
 80033ea:	4639      	mov	r1, r7
 80033ec:	4620      	mov	r0, r4
 80033ee:	3d01      	subs	r5, #1
 80033f0:	f7ff fd9c 	bl	8002f2c <prvCopyDataFromQueue>
 80033f4:	63a5      	str	r5, [r4, #56]	; 0x38
 80033f6:	6923      	ldr	r3, [r4, #16]
 80033f8:	b163      	cbz	r3, 8003414 <xQueueReceive+0x10c>
 80033fa:	f104 0010 	add.w	r0, r4, #16
 80033fe:	f000 fc0b 	bl	8003c18 <xTaskRemoveFromEventList>
 8003402:	b138      	cbz	r0, 8003414 <xQueueReceive+0x10c>
 8003404:	f04f 5280 	mov.w	r2, #268435456	; 0x10000000
 8003408:	4b0e      	ldr	r3, [pc, #56]	; (8003444 <xQueueReceive+0x13c>)
 800340a:	601a      	str	r2, [r3, #0]
 800340c:	f3bf 8f4f 	dsb	sy
 8003410:	f3bf 8f6f 	isb	sy
 8003414:	f000 ff30 	bl	8004278 <vPortExitCritical>
 8003418:	2001      	movs	r0, #1
 800341a:	b005      	add	sp, #20
 800341c:	e8bd 83f0 	ldmia.w	sp!, {r4, r5, r6, r7, r8, r9, pc}
 8003420:	4620      	mov	r0, r4
 8003422:	f7ff fd97 	bl	8002f54 <prvUnlockQueue>
 8003426:	f000 fae9 	bl	80039fc <xTaskResumeAll>
 800342a:	e7d8      	b.n	80033de <xQueueReceive+0xd6>
 800342c:	4620      	mov	r0, r4
 800342e:	f7ff fd91 	bl	8002f54 <prvUnlockQueue>
 8003432:	f000 fae3 	bl	80039fc <xTaskResumeAll>
 8003436:	4620      	mov	r0, r4
 8003438:	f7ff fd3a 	bl	8002eb0 <prvIsQueueEmpty>
 800343c:	2800      	cmp	r0, #0
 800343e:	d0ce      	beq.n	80033de <xQueueReceive+0xd6>
 8003440:	e796      	b.n	8003370 <xQueueReceive+0x68>
 8003442:	bf00      	nop
 8003444:	e000ed04 	.word	0xe000ed04

08003448 <vQueueAddToRegistry>:
 8003448:	2300      	movs	r3, #0
 800344a:	b530      	push	{r4, r5, lr}
 800344c:	4a06      	ldr	r2, [pc, #24]	; (8003468 <vQueueAddToRegistry+0x20>)
 800344e:	f852 5033 	ldr.w	r5, [r2, r3, lsl #3]
 8003452:	eb02 04c3 	add.w	r4, r2, r3, lsl #3
 8003456:	b91d      	cbnz	r5, 8003460 <vQueueAddToRegistry+0x18>
 8003458:	f842 1033 	str.w	r1, [r2, r3, lsl #3]
 800345c:	6060      	str	r0, [r4, #4]
 800345e:	bd30      	pop	{r4, r5, pc}
 8003460:	3301      	adds	r3, #1
 8003462:	2b08      	cmp	r3, #8
 8003464:	d1f3      	bne.n	800344e <vQueueAddToRegistry+0x6>
 8003466:	e7fa      	b.n	800345e <vQueueAddToRegistry+0x16>
 8003468:	20002df0 	.word	0x20002df0

0800346c <vQueueWaitForMessageRestricted>:
 800346c:	b570      	push	{r4, r5, r6, lr}
 800346e:	4604      	mov	r4, r0
 8003470:	460d      	mov	r5, r1
 8003472:	4616      	mov	r6, r2
 8003474:	f000 fede 	bl	8004234 <vPortEnterCritical>
 8003478:	f894 3044 	ldrb.w	r3, [r4, #68]	; 0x44
 800347c:	2bff      	cmp	r3, #255	; 0xff
 800347e:	bf04      	itt	eq
 8003480:	2300      	moveq	r3, #0
 8003482:	f884 3044 	strbeq.w	r3, [r4, #68]	; 0x44
 8003486:	f894 3045 	ldrb.w	r3, [r4, #69]	; 0x45
 800348a:	2bff      	cmp	r3, #255	; 0xff
 800348c:	bf04      	itt	eq
 800348e:	2300      	moveq	r3, #0
 8003490:	f884 3045 	strbeq.w	r3, [r4, #69]	; 0x45
 8003494:	f000 fef0 	bl	8004278 <vPortExitCritical>
 8003498:	6ba3      	ldr	r3, [r4, #56]	; 0x38
 800349a:	b92b      	cbnz	r3, 80034a8 <vQueueWaitForMessageRestricted+0x3c>
 800349c:	4632      	mov	r2, r6
 800349e:	4629      	mov	r1, r5
 80034a0:	f104 0024 	add.w	r0, r4, #36	; 0x24
 80034a4:	f000 fb98 	bl	8003bd8 <vTaskPlaceOnEventListRestricted>
 80034a8:	4620      	mov	r0, r4
 80034aa:	e8bd 4070 	ldmia.w	sp!, {r4, r5, r6, lr}
 80034ae:	f7ff bd51 	b.w	8002f54 <prvUnlockQueue>
	...

080034b4 <prvAddNewTaskToReadyList>:
 80034b4:	e92d 41f0 	stmdb	sp!, {r4, r5, r6, r7, r8, lr}
 80034b8:	4604      	mov	r4, r0
 80034ba:	f000 febb 	bl	8004234 <vPortEnterCritical>
 80034be:	4b2f      	ldr	r3, [pc, #188]	; (800357c <prvAddNewTaskToReadyList+0xc8>)
 80034c0:	4d2f      	ldr	r5, [pc, #188]	; (8003580 <prvAddNewTaskToReadyList+0xcc>)
 80034c2:	681a      	ldr	r2, [r3, #0]
 80034c4:	4f2f      	ldr	r7, [pc, #188]	; (8003584 <prvAddNewTaskToReadyList+0xd0>)
 80034c6:	3201      	adds	r2, #1
 80034c8:	601a      	str	r2, [r3, #0]
 80034ca:	682e      	ldr	r6, [r5, #0]
 80034cc:	2e00      	cmp	r6, #0
 80034ce:	d149      	bne.n	8003564 <prvAddNewTaskToReadyList+0xb0>
 80034d0:	602c      	str	r4, [r5, #0]
 80034d2:	681b      	ldr	r3, [r3, #0]
 80034d4:	2b01      	cmp	r3, #1
 80034d6:	d11f      	bne.n	8003518 <prvAddNewTaskToReadyList+0x64>
 80034d8:	f04f 0814 	mov.w	r8, #20
 80034dc:	fb08 7006 	mla	r0, r8, r6, r7
 80034e0:	3601      	adds	r6, #1
 80034e2:	f7ff fca3 	bl	8002e2c <vListInitialise>
 80034e6:	2e38      	cmp	r6, #56	; 0x38
 80034e8:	d1f8      	bne.n	80034dc <prvAddNewTaskToReadyList+0x28>
 80034ea:	f8df 80c4 	ldr.w	r8, [pc, #196]	; 80035b0 <prvAddNewTaskToReadyList+0xfc>
 80034ee:	4e26      	ldr	r6, [pc, #152]	; (8003588 <prvAddNewTaskToReadyList+0xd4>)
 80034f0:	4640      	mov	r0, r8
 80034f2:	f7ff fc9b 	bl	8002e2c <vListInitialise>
 80034f6:	4630      	mov	r0, r6
 80034f8:	f7ff fc98 	bl	8002e2c <vListInitialise>
 80034fc:	4823      	ldr	r0, [pc, #140]	; (800358c <prvAddNewTaskToReadyList+0xd8>)
 80034fe:	f7ff fc95 	bl	8002e2c <vListInitialise>
 8003502:	4823      	ldr	r0, [pc, #140]	; (8003590 <prvAddNewTaskToReadyList+0xdc>)
 8003504:	f7ff fc92 	bl	8002e2c <vListInitialise>
 8003508:	4822      	ldr	r0, [pc, #136]	; (8003594 <prvAddNewTaskToReadyList+0xe0>)
 800350a:	f7ff fc8f 	bl	8002e2c <vListInitialise>
 800350e:	4b22      	ldr	r3, [pc, #136]	; (8003598 <prvAddNewTaskToReadyList+0xe4>)
 8003510:	f8c3 8000 	str.w	r8, [r3]
 8003514:	4b21      	ldr	r3, [pc, #132]	; (800359c <prvAddNewTaskToReadyList+0xe8>)
 8003516:	601e      	str	r6, [r3, #0]
 8003518:	2014      	movs	r0, #20
 800351a:	4a21      	ldr	r2, [pc, #132]	; (80035a0 <prvAddNewTaskToReadyList+0xec>)
 800351c:	6813      	ldr	r3, [r2, #0]
 800351e:	3301      	adds	r3, #1
 8003520:	6013      	str	r3, [r2, #0]
 8003522:	4a20      	ldr	r2, [pc, #128]	; (80035a4 <prvAddNewTaskToReadyList+0xf0>)
 8003524:	6463      	str	r3, [r4, #68]	; 0x44
 8003526:	6811      	ldr	r1, [r2, #0]
 8003528:	6ae3      	ldr	r3, [r4, #44]	; 0x2c
 800352a:	428b      	cmp	r3, r1
 800352c:	fb00 7003 	mla	r0, r0, r3, r7
 8003530:	f104 0104 	add.w	r1, r4, #4
 8003534:	bf88      	it	hi
 8003536:	6013      	strhi	r3, [r2, #0]
 8003538:	f7ff fc86 	bl	8002e48 <vListInsertEnd>
 800353c:	f000 fe9c 	bl	8004278 <vPortExitCritical>
 8003540:	4b19      	ldr	r3, [pc, #100]	; (80035a8 <prvAddNewTaskToReadyList+0xf4>)
 8003542:	681b      	ldr	r3, [r3, #0]
 8003544:	b163      	cbz	r3, 8003560 <prvAddNewTaskToReadyList+0xac>
 8003546:	682b      	ldr	r3, [r5, #0]
 8003548:	6ada      	ldr	r2, [r3, #44]	; 0x2c
 800354a:	6ae3      	ldr	r3, [r4, #44]	; 0x2c
 800354c:	429a      	cmp	r2, r3
 800354e:	d207      	bcs.n	8003560 <prvAddNewTaskToReadyList+0xac>
 8003550:	f04f 5280 	mov.w	r2, #268435456	; 0x10000000
 8003554:	4b15      	ldr	r3, [pc, #84]	; (80035ac <prvAddNewTaskToReadyList+0xf8>)
 8003556:	601a      	str	r2, [r3, #0]
 8003558:	f3bf 8f4f 	dsb	sy
 800355c:	f3bf 8f6f 	isb	sy
 8003560:	e8bd 81f0 	ldmia.w	sp!, {r4, r5, r6, r7, r8, pc}
 8003564:	4b10      	ldr	r3, [pc, #64]	; (80035a8 <prvAddNewTaskToReadyList+0xf4>)
 8003566:	681b      	ldr	r3, [r3, #0]
 8003568:	2b00      	cmp	r3, #0
 800356a:	d1d5      	bne.n	8003518 <prvAddNewTaskToReadyList+0x64>
 800356c:	682b      	ldr	r3, [r5, #0]
 800356e:	6ada      	ldr	r2, [r3, #44]	; 0x2c
 8003570:	6ae3      	ldr	r3, [r4, #44]	; 0x2c
 8003572:	429a      	cmp	r2, r3
 8003574:	bf98      	it	ls
 8003576:	602c      	strls	r4, [r5, #0]
 8003578:	e7ce      	b.n	8003518 <prvAddNewTaskToReadyList+0x64>
 800357a:	bf00      	nop
 800357c:	20000bc8 	.word	0x20000bc8
 8003580:	2000075c 	.word	0x2000075c
 8003584:	20000768 	.word	0x20000768
 8003588:	20000bf4 	.word	0x20000bf4
 800358c:	20000c10 	.word	0x20000c10
 8003590:	20000c3c 	.word	0x20000c3c
 8003594:	20000c28 	.word	0x20000c28
 8003598:	20000760 	.word	0x20000760
 800359c:	20000764 	.word	0x20000764
 80035a0:	20000bd8 	.word	0x20000bd8
 80035a4:	20000bdc 	.word	0x20000bdc
 80035a8:	20000c24 	.word	0x20000c24
 80035ac:	e000ed04 	.word	0xe000ed04
 80035b0:	20000be0 	.word	0x20000be0

080035b4 <prvDeleteTCB>:
 80035b4:	b510      	push	{r4, lr}
 80035b6:	f890 3059 	ldrb.w	r3, [r0, #89]	; 0x59
 80035ba:	4604      	mov	r4, r0
 80035bc:	b93b      	cbnz	r3, 80035ce <prvDeleteTCB+0x1a>
 80035be:	6b00      	ldr	r0, [r0, #48]	; 0x30
 80035c0:	f000 fff8 	bl	80045b4 <vPortFree>
 80035c4:	4620      	mov	r0, r4
 80035c6:	e8bd 4010 	ldmia.w	sp!, {r4, lr}
 80035ca:	f000 bff3 	b.w	80045b4 <vPortFree>
 80035ce:	2b01      	cmp	r3, #1
 80035d0:	d0f9      	beq.n	80035c6 <prvDeleteTCB+0x12>
 80035d2:	2b02      	cmp	r3, #2
 80035d4:	d008      	beq.n	80035e8 <prvDeleteTCB+0x34>
 80035d6:	f04f 0350 	mov.w	r3, #80	; 0x50
 80035da:	f383 8811 	msr	BASEPRI, r3
 80035de:	f3bf 8f6f 	isb	sy
 80035e2:	f3bf 8f4f 	dsb	sy
 80035e6:	e7fe      	b.n	80035e6 <prvDeleteTCB+0x32>
 80035e8:	bd10      	pop	{r4, pc}
	...

080035ec <prvIdleTask>:
 80035ec:	b580      	push	{r7, lr}
 80035ee:	f8df 805c 	ldr.w	r8, [pc, #92]	; 800364c <prvIdleTask+0x60>
 80035f2:	4f12      	ldr	r7, [pc, #72]	; (800363c <prvIdleTask+0x50>)
 80035f4:	4c12      	ldr	r4, [pc, #72]	; (8003640 <prvIdleTask+0x54>)
 80035f6:	4d13      	ldr	r5, [pc, #76]	; (8003644 <prvIdleTask+0x58>)
 80035f8:	6823      	ldr	r3, [r4, #0]
 80035fa:	b963      	cbnz	r3, 8003616 <prvIdleTask+0x2a>
 80035fc:	4b12      	ldr	r3, [pc, #72]	; (8003648 <prvIdleTask+0x5c>)
 80035fe:	681b      	ldr	r3, [r3, #0]
 8003600:	2b01      	cmp	r3, #1
 8003602:	d9f8      	bls.n	80035f6 <prvIdleTask+0xa>
 8003604:	f04f 5380 	mov.w	r3, #268435456	; 0x10000000
 8003608:	f8c8 3000 	str.w	r3, [r8]
 800360c:	f3bf 8f4f 	dsb	sy
 8003610:	f3bf 8f6f 	isb	sy
 8003614:	e7ee      	b.n	80035f4 <prvIdleTask+0x8>
 8003616:	f000 fe0d 	bl	8004234 <vPortEnterCritical>
 800361a:	68fb      	ldr	r3, [r7, #12]
 800361c:	68de      	ldr	r6, [r3, #12]
 800361e:	1d30      	adds	r0, r6, #4
 8003620:	f7ff fc35 	bl	8002e8e <uxListRemove>
 8003624:	682b      	ldr	r3, [r5, #0]
 8003626:	3b01      	subs	r3, #1
 8003628:	602b      	str	r3, [r5, #0]
 800362a:	6823      	ldr	r3, [r4, #0]
 800362c:	3b01      	subs	r3, #1
 800362e:	6023      	str	r3, [r4, #0]
 8003630:	f000 fe22 	bl	8004278 <vPortExitCritical>
 8003634:	4630      	mov	r0, r6
 8003636:	f7ff ffbd 	bl	80035b4 <prvDeleteTCB>
 800363a:	e7dd      	b.n	80035f8 <prvIdleTask+0xc>
 800363c:	20000c3c 	.word	0x20000c3c
 8003640:	20000bcc 	.word	0x20000bcc
 8003644:	20000bc8 	.word	0x20000bc8
 8003648:	20000768 	.word	0x20000768
 800364c:	e000ed04 	.word	0xe000ed04

08003650 <prvResetNextTaskUnblockTime>:
 8003650:	4a06      	ldr	r2, [pc, #24]	; (800366c <prvResetNextTaskUnblockTime+0x1c>)
 8003652:	6813      	ldr	r3, [r2, #0]
 8003654:	6819      	ldr	r1, [r3, #0]
 8003656:	4b06      	ldr	r3, [pc, #24]	; (8003670 <prvResetNextTaskUnblockTime+0x20>)
 8003658:	b919      	cbnz	r1, 8003662 <prvResetNextTaskUnblockTime+0x12>
 800365a:	f04f 32ff 	mov.w	r2, #4294967295
 800365e:	601a      	str	r2, [r3, #0]
 8003660:	4770      	bx	lr
 8003662:	6812      	ldr	r2, [r2, #0]
 8003664:	68d2      	ldr	r2, [r2, #12]
 8003666:	68d2      	ldr	r2, [r2, #12]
 8003668:	6852      	ldr	r2, [r2, #4]
 800366a:	e7f8      	b.n	800365e <prvResetNextTaskUnblockTime+0xe>
 800366c:	20000760 	.word	0x20000760
 8003670:	20000c08 	.word	0x20000c08

08003674 <prvInitialiseNewTask.isra.2>:
 8003674:	e92d 47f0 	stmdb	sp!, {r4, r5, r6, r7, r8, r9, sl, lr}
 8003678:	460d      	mov	r5, r1
 800367a:	e9dd 7409 	ldrd	r7, r4, [sp, #36]	; 0x24
 800367e:	0096      	lsls	r6, r2, #2
 8003680:	4632      	mov	r2, r6
 8003682:	4680      	mov	r8, r0
 8003684:	21a5      	movs	r1, #165	; 0xa5
 8003686:	6b20      	ldr	r0, [r4, #48]	; 0x30
 8003688:	4699      	mov	r9, r3
 800368a:	f001 f822 	bl	80046d2 <memset>
 800368e:	6b23      	ldr	r3, [r4, #48]	; 0x30
 8003690:	3e04      	subs	r6, #4
 8003692:	441e      	add	r6, r3
 8003694:	f026 0607 	bic.w	r6, r6, #7
 8003698:	1e6b      	subs	r3, r5, #1
 800369a:	f104 0234 	add.w	r2, r4, #52	; 0x34
 800369e:	350f      	adds	r5, #15
 80036a0:	f813 1f01 	ldrb.w	r1, [r3, #1]!
 80036a4:	f802 1b01 	strb.w	r1, [r2], #1
 80036a8:	7819      	ldrb	r1, [r3, #0]
 80036aa:	b109      	cbz	r1, 80036b0 <prvInitialiseNewTask.isra.2+0x3c>
 80036ac:	42ab      	cmp	r3, r5
 80036ae:	d1f7      	bne.n	80036a0 <prvInitialiseNewTask.isra.2+0x2c>
 80036b0:	9d08      	ldr	r5, [sp, #32]
 80036b2:	f04f 0a00 	mov.w	sl, #0
 80036b6:	2d37      	cmp	r5, #55	; 0x37
 80036b8:	bf28      	it	cs
 80036ba:	2537      	movcs	r5, #55	; 0x37
 80036bc:	1d20      	adds	r0, r4, #4
 80036be:	62e5      	str	r5, [r4, #44]	; 0x2c
 80036c0:	e9c4 5a13 	strd	r5, sl, [r4, #76]	; 0x4c
 80036c4:	f884 a043 	strb.w	sl, [r4, #67]	; 0x43
 80036c8:	f7ff fbbb 	bl	8002e42 <vListInitialiseItem>
 80036cc:	f1c5 0538 	rsb	r5, r5, #56	; 0x38
 80036d0:	f104 0018 	add.w	r0, r4, #24
 80036d4:	f7ff fbb5 	bl	8002e42 <vListInitialiseItem>
 80036d8:	f8c4 a054 	str.w	sl, [r4, #84]	; 0x54
 80036dc:	6124      	str	r4, [r4, #16]
 80036de:	61a5      	str	r5, [r4, #24]
 80036e0:	6264      	str	r4, [r4, #36]	; 0x24
 80036e2:	f884 a058 	strb.w	sl, [r4, #88]	; 0x58
 80036e6:	464a      	mov	r2, r9
 80036e8:	4641      	mov	r1, r8
 80036ea:	4630      	mov	r0, r6
 80036ec:	f000 fd7a 	bl	80041e4 <pxPortInitialiseStack>
 80036f0:	6020      	str	r0, [r4, #0]
 80036f2:	b107      	cbz	r7, 80036f6 <prvInitialiseNewTask.isra.2+0x82>
 80036f4:	603c      	str	r4, [r7, #0]
 80036f6:	e8bd 87f0 	ldmia.w	sp!, {r4, r5, r6, r7, r8, r9, sl, pc}
	...

080036fc <prvAddCurrentTaskToDelayedList>:
 80036fc:	b5f8      	push	{r3, r4, r5, r6, r7, lr}
 80036fe:	4605      	mov	r5, r0
 8003700:	4b15      	ldr	r3, [pc, #84]	; (8003758 <prvAddCurrentTaskToDelayedList+0x5c>)
 8003702:	4e16      	ldr	r6, [pc, #88]	; (800375c <prvAddCurrentTaskToDelayedList+0x60>)
 8003704:	681c      	ldr	r4, [r3, #0]
 8003706:	6830      	ldr	r0, [r6, #0]
 8003708:	460f      	mov	r7, r1
 800370a:	3004      	adds	r0, #4
 800370c:	f7ff fbbf 	bl	8002e8e <uxListRemove>
 8003710:	1c6b      	adds	r3, r5, #1
 8003712:	4633      	mov	r3, r6
 8003714:	d107      	bne.n	8003726 <prvAddCurrentTaskToDelayedList+0x2a>
 8003716:	b137      	cbz	r7, 8003726 <prvAddCurrentTaskToDelayedList+0x2a>
 8003718:	6831      	ldr	r1, [r6, #0]
 800371a:	4811      	ldr	r0, [pc, #68]	; (8003760 <prvAddCurrentTaskToDelayedList+0x64>)
 800371c:	3104      	adds	r1, #4
 800371e:	e8bd 40f8 	ldmia.w	sp!, {r3, r4, r5, r6, r7, lr}
 8003722:	f7ff bb91 	b.w	8002e48 <vListInsertEnd>
 8003726:	681a      	ldr	r2, [r3, #0]
 8003728:	1964      	adds	r4, r4, r5
 800372a:	6054      	str	r4, [r2, #4]
 800372c:	d307      	bcc.n	800373e <prvAddCurrentTaskToDelayedList+0x42>
 800372e:	4a0d      	ldr	r2, [pc, #52]	; (8003764 <prvAddCurrentTaskToDelayedList+0x68>)
 8003730:	6810      	ldr	r0, [r2, #0]
 8003732:	6819      	ldr	r1, [r3, #0]
 8003734:	e8bd 40f8 	ldmia.w	sp!, {r3, r4, r5, r6, r7, lr}
 8003738:	3104      	adds	r1, #4
 800373a:	f7ff bb91 	b.w	8002e60 <vListInsert>
 800373e:	4a0a      	ldr	r2, [pc, #40]	; (8003768 <prvAddCurrentTaskToDelayedList+0x6c>)
 8003740:	6810      	ldr	r0, [r2, #0]
 8003742:	6819      	ldr	r1, [r3, #0]
 8003744:	3104      	adds	r1, #4
 8003746:	f7ff fb8b 	bl	8002e60 <vListInsert>
 800374a:	4b08      	ldr	r3, [pc, #32]	; (800376c <prvAddCurrentTaskToDelayedList+0x70>)
 800374c:	681a      	ldr	r2, [r3, #0]
 800374e:	42a2      	cmp	r2, r4
 8003750:	bf88      	it	hi
 8003752:	601c      	strhi	r4, [r3, #0]
 8003754:	bdf8      	pop	{r3, r4, r5, r6, r7, pc}
 8003756:	bf00      	nop
 8003758:	20000c50 	.word	0x20000c50
 800375c:	2000075c 	.word	0x2000075c
 8003760:	20000c28 	.word	0x20000c28
 8003764:	20000764 	.word	0x20000764
 8003768:	20000760 	.word	0x20000760
 800376c:	20000c08 	.word	0x20000c08

08003770 <xTaskCreateStatic>:
 8003770:	b570      	push	{r4, r5, r6, lr}
 8003772:	b086      	sub	sp, #24
 8003774:	e9dd 540b 	ldrd	r5, r4, [sp, #44]	; 0x2c
 8003778:	b945      	cbnz	r5, 800378c <xTaskCreateStatic+0x1c>
 800377a:	f04f 0350 	mov.w	r3, #80	; 0x50
 800377e:	f383 8811 	msr	BASEPRI, r3
 8003782:	f3bf 8f6f 	isb	sy
 8003786:	f3bf 8f4f 	dsb	sy
 800378a:	e7fe      	b.n	800378a <xTaskCreateStatic+0x1a>
 800378c:	b944      	cbnz	r4, 80037a0 <xTaskCreateStatic+0x30>
 800378e:	f04f 0350 	mov.w	r3, #80	; 0x50
 8003792:	f383 8811 	msr	BASEPRI, r3
 8003796:	f3bf 8f6f 	isb	sy
 800379a:	f3bf 8f4f 	dsb	sy
 800379e:	e7fe      	b.n	800379e <xTaskCreateStatic+0x2e>
 80037a0:	265c      	movs	r6, #92	; 0x5c
 80037a2:	9604      	str	r6, [sp, #16]
 80037a4:	9e04      	ldr	r6, [sp, #16]
 80037a6:	2e5c      	cmp	r6, #92	; 0x5c
 80037a8:	d008      	beq.n	80037bc <xTaskCreateStatic+0x4c>
 80037aa:	f04f 0350 	mov.w	r3, #80	; 0x50
 80037ae:	f383 8811 	msr	BASEPRI, r3
 80037b2:	f3bf 8f6f 	isb	sy
 80037b6:	f3bf 8f4f 	dsb	sy
 80037ba:	e7fe      	b.n	80037ba <xTaskCreateStatic+0x4a>
 80037bc:	6325      	str	r5, [r4, #48]	; 0x30
 80037be:	2502      	movs	r5, #2
 80037c0:	f884 5059 	strb.w	r5, [r4, #89]	; 0x59
 80037c4:	ad05      	add	r5, sp, #20
 80037c6:	9501      	str	r5, [sp, #4]
 80037c8:	9d0a      	ldr	r5, [sp, #40]	; 0x28
 80037ca:	9402      	str	r4, [sp, #8]
 80037cc:	9500      	str	r5, [sp, #0]
 80037ce:	f7ff ff51 	bl	8003674 <prvInitialiseNewTask.isra.2>
 80037d2:	4620      	mov	r0, r4
 80037d4:	f7ff fe6e 	bl	80034b4 <prvAddNewTaskToReadyList>
 80037d8:	9805      	ldr	r0, [sp, #20]
 80037da:	b006      	add	sp, #24
 80037dc:	bd70      	pop	{r4, r5, r6, pc}

080037de <xTaskCreate>:
 80037de:	e92d 43f0 	stmdb	sp!, {r4, r5, r6, r7, r8, r9, lr}
 80037e2:	4607      	mov	r7, r0
 80037e4:	b085      	sub	sp, #20
 80037e6:	0090      	lsls	r0, r2, #2
 80037e8:	4688      	mov	r8, r1
 80037ea:	4616      	mov	r6, r2
 80037ec:	4699      	mov	r9, r3
 80037ee:	f000 fe55 	bl	800449c <pvPortMalloc>
 80037f2:	4605      	mov	r5, r0
 80037f4:	b1e8      	cbz	r0, 8003832 <xTaskCreate+0x54>
 80037f6:	205c      	movs	r0, #92	; 0x5c
 80037f8:	f000 fe50 	bl	800449c <pvPortMalloc>
 80037fc:	4604      	mov	r4, r0
 80037fe:	b1a8      	cbz	r0, 800382c <xTaskCreate+0x4e>
 8003800:	2300      	movs	r3, #0
 8003802:	f880 3059 	strb.w	r3, [r0, #89]	; 0x59
 8003806:	9b0d      	ldr	r3, [sp, #52]	; 0x34
 8003808:	6305      	str	r5, [r0, #48]	; 0x30
 800380a:	9301      	str	r3, [sp, #4]
 800380c:	9b0c      	ldr	r3, [sp, #48]	; 0x30
 800380e:	9002      	str	r0, [sp, #8]
 8003810:	9300      	str	r3, [sp, #0]
 8003812:	4632      	mov	r2, r6
 8003814:	464b      	mov	r3, r9
 8003816:	4641      	mov	r1, r8
 8003818:	4638      	mov	r0, r7
 800381a:	f7ff ff2b 	bl	8003674 <prvInitialiseNewTask.isra.2>
 800381e:	4620      	mov	r0, r4
 8003820:	f7ff fe48 	bl	80034b4 <prvAddNewTaskToReadyList>
 8003824:	2001      	movs	r0, #1
 8003826:	b005      	add	sp, #20
 8003828:	e8bd 83f0 	ldmia.w	sp!, {r4, r5, r6, r7, r8, r9, pc}
 800382c:	4628      	mov	r0, r5
 800382e:	f000 fec1 	bl	80045b4 <vPortFree>
 8003832:	f04f 30ff 	mov.w	r0, #4294967295
 8003836:	e7f6      	b.n	8003826 <xTaskCreate+0x48>

08003838 <vTaskStartScheduler>:
 8003838:	b510      	push	{r4, lr}
 800383a:	2400      	movs	r4, #0
 800383c:	b088      	sub	sp, #32
 800383e:	aa07      	add	r2, sp, #28
 8003840:	a906      	add	r1, sp, #24
 8003842:	a805      	add	r0, sp, #20
 8003844:	e9cd 4405 	strd	r4, r4, [sp, #20]
 8003848:	f7ff fad8 	bl	8002dfc <vApplicationGetIdleTaskMemory>
 800384c:	9b05      	ldr	r3, [sp, #20]
 800384e:	9a07      	ldr	r2, [sp, #28]
 8003850:	9302      	str	r3, [sp, #8]
 8003852:	9b06      	ldr	r3, [sp, #24]
 8003854:	4915      	ldr	r1, [pc, #84]	; (80038ac <vTaskStartScheduler+0x74>)
 8003856:	e9cd 4300 	strd	r4, r3, [sp]
 800385a:	4815      	ldr	r0, [pc, #84]	; (80038b0 <vTaskStartScheduler+0x78>)
 800385c:	4623      	mov	r3, r4
 800385e:	f7ff ff87 	bl	8003770 <xTaskCreateStatic>
 8003862:	b1a8      	cbz	r0, 8003890 <vTaskStartScheduler+0x58>
 8003864:	f000 fb0a 	bl	8003e7c <xTimerCreateTimerTask>
 8003868:	2801      	cmp	r0, #1
 800386a:	d113      	bne.n	8003894 <vTaskStartScheduler+0x5c>
 800386c:	f04f 0350 	mov.w	r3, #80	; 0x50
 8003870:	f383 8811 	msr	BASEPRI, r3
 8003874:	f3bf 8f6f 	isb	sy
 8003878:	f3bf 8f4f 	dsb	sy
 800387c:	f04f 32ff 	mov.w	r2, #4294967295
 8003880:	4b0c      	ldr	r3, [pc, #48]	; (80038b4 <vTaskStartScheduler+0x7c>)
 8003882:	601a      	str	r2, [r3, #0]
 8003884:	4b0c      	ldr	r3, [pc, #48]	; (80038b8 <vTaskStartScheduler+0x80>)
 8003886:	6018      	str	r0, [r3, #0]
 8003888:	4b0c      	ldr	r3, [pc, #48]	; (80038bc <vTaskStartScheduler+0x84>)
 800388a:	601c      	str	r4, [r3, #0]
 800388c:	f000 fd5a 	bl	8004344 <xPortStartScheduler>
 8003890:	b008      	add	sp, #32
 8003892:	bd10      	pop	{r4, pc}
 8003894:	3001      	adds	r0, #1
 8003896:	d1fb      	bne.n	8003890 <vTaskStartScheduler+0x58>
 8003898:	f04f 0350 	mov.w	r3, #80	; 0x50
 800389c:	f383 8811 	msr	BASEPRI, r3
 80038a0:	f3bf 8f6f 	isb	sy
 80038a4:	f3bf 8f4f 	dsb	sy
 80038a8:	e7fe      	b.n	80038a8 <vTaskStartScheduler+0x70>
 80038aa:	bf00      	nop
 80038ac:	080055cd 	.word	0x080055cd
 80038b0:	080035ed 	.word	0x080035ed
 80038b4:	20000c08 	.word	0x20000c08
 80038b8:	20000c24 	.word	0x20000c24
 80038bc:	20000c50 	.word	0x20000c50

080038c0 <vTaskSuspendAll>:
 80038c0:	4a02      	ldr	r2, [pc, #8]	; (80038cc <vTaskSuspendAll+0xc>)
 80038c2:	6813      	ldr	r3, [r2, #0]
 80038c4:	3301      	adds	r3, #1
 80038c6:	6013      	str	r3, [r2, #0]
 80038c8:	4770      	bx	lr
 80038ca:	bf00      	nop
 80038cc:	20000bd4 	.word	0x20000bd4

080038d0 <xTaskGetTickCount>:
 80038d0:	4b01      	ldr	r3, [pc, #4]	; (80038d8 <xTaskGetTickCount+0x8>)
 80038d2:	6818      	ldr	r0, [r3, #0]
 80038d4:	4770      	bx	lr
 80038d6:	bf00      	nop
 80038d8:	20000c50 	.word	0x20000c50

080038dc <xTaskIncrementTick>:
 80038dc:	e92d 4ff8 	stmdb	sp!, {r3, r4, r5, r6, r7, r8, r9, sl, fp, lr}
 80038e0:	4b3b      	ldr	r3, [pc, #236]	; (80039d0 <xTaskIncrementTick+0xf4>)
 80038e2:	681b      	ldr	r3, [r3, #0]
 80038e4:	2b00      	cmp	r3, #0
 80038e6:	d16b      	bne.n	80039c0 <xTaskIncrementTick+0xe4>
 80038e8:	4b3a      	ldr	r3, [pc, #232]	; (80039d4 <xTaskIncrementTick+0xf8>)
 80038ea:	681c      	ldr	r4, [r3, #0]
 80038ec:	3401      	adds	r4, #1
 80038ee:	601c      	str	r4, [r3, #0]
 80038f0:	b9bc      	cbnz	r4, 8003922 <xTaskIncrementTick+0x46>
 80038f2:	4b39      	ldr	r3, [pc, #228]	; (80039d8 <xTaskIncrementTick+0xfc>)
 80038f4:	681a      	ldr	r2, [r3, #0]
 80038f6:	6812      	ldr	r2, [r2, #0]
 80038f8:	b142      	cbz	r2, 800390c <xTaskIncrementTick+0x30>
 80038fa:	f04f 0350 	mov.w	r3, #80	; 0x50
 80038fe:	f383 8811 	msr	BASEPRI, r3
 8003902:	f3bf 8f6f 	isb	sy
 8003906:	f3bf 8f4f 	dsb	sy
 800390a:	e7fe      	b.n	800390a <xTaskIncrementTick+0x2e>
 800390c:	4a33      	ldr	r2, [pc, #204]	; (80039dc <xTaskIncrementTick+0x100>)
 800390e:	6819      	ldr	r1, [r3, #0]
 8003910:	6810      	ldr	r0, [r2, #0]
 8003912:	6018      	str	r0, [r3, #0]
 8003914:	6011      	str	r1, [r2, #0]
 8003916:	4a32      	ldr	r2, [pc, #200]	; (80039e0 <xTaskIncrementTick+0x104>)
 8003918:	6813      	ldr	r3, [r2, #0]
 800391a:	3301      	adds	r3, #1
 800391c:	6013      	str	r3, [r2, #0]
 800391e:	f7ff fe97 	bl	8003650 <prvResetNextTaskUnblockTime>
 8003922:	4d30      	ldr	r5, [pc, #192]	; (80039e4 <xTaskIncrementTick+0x108>)
 8003924:	f04f 0b00 	mov.w	fp, #0
 8003928:	682b      	ldr	r3, [r5, #0]
 800392a:	4f2f      	ldr	r7, [pc, #188]	; (80039e8 <xTaskIncrementTick+0x10c>)
 800392c:	42a3      	cmp	r3, r4
 800392e:	d911      	bls.n	8003954 <xTaskIncrementTick+0x78>
 8003930:	683a      	ldr	r2, [r7, #0]
 8003932:	4b2e      	ldr	r3, [pc, #184]	; (80039ec <xTaskIncrementTick+0x110>)
 8003934:	6ad1      	ldr	r1, [r2, #44]	; 0x2c
 8003936:	2214      	movs	r2, #20
 8003938:	434a      	muls	r2, r1
 800393a:	589a      	ldr	r2, [r3, r2]
 800393c:	2a02      	cmp	r2, #2
 800393e:	bf28      	it	cs
 8003940:	f04f 0b01 	movcs.w	fp, #1
 8003944:	4a2a      	ldr	r2, [pc, #168]	; (80039f0 <xTaskIncrementTick+0x114>)
 8003946:	6812      	ldr	r2, [r2, #0]
 8003948:	2a00      	cmp	r2, #0
 800394a:	bf0c      	ite	eq
 800394c:	4658      	moveq	r0, fp
 800394e:	2001      	movne	r0, #1
 8003950:	e8bd 8ff8 	ldmia.w	sp!, {r3, r4, r5, r6, r7, r8, r9, sl, fp, pc}
 8003954:	f8df 9080 	ldr.w	r9, [pc, #128]	; 80039d8 <xTaskIncrementTick+0xfc>
 8003958:	f8df a09c 	ldr.w	sl, [pc, #156]	; 80039f8 <xTaskIncrementTick+0x11c>
 800395c:	f8d9 2000 	ldr.w	r2, [r9]
 8003960:	6812      	ldr	r2, [r2, #0]
 8003962:	b91a      	cbnz	r2, 800396c <xTaskIncrementTick+0x90>
 8003964:	f04f 32ff 	mov.w	r2, #4294967295
 8003968:	602a      	str	r2, [r5, #0]
 800396a:	e7e1      	b.n	8003930 <xTaskIncrementTick+0x54>
 800396c:	f8d9 2000 	ldr.w	r2, [r9]
 8003970:	68d2      	ldr	r2, [r2, #12]
 8003972:	68d6      	ldr	r6, [r2, #12]
 8003974:	6871      	ldr	r1, [r6, #4]
 8003976:	428c      	cmp	r4, r1
 8003978:	d201      	bcs.n	800397e <xTaskIncrementTick+0xa2>
 800397a:	6029      	str	r1, [r5, #0]
 800397c:	e7d8      	b.n	8003930 <xTaskIncrementTick+0x54>
 800397e:	f106 0804 	add.w	r8, r6, #4
 8003982:	4640      	mov	r0, r8
 8003984:	f7ff fa83 	bl	8002e8e <uxListRemove>
 8003988:	6ab1      	ldr	r1, [r6, #40]	; 0x28
 800398a:	b119      	cbz	r1, 8003994 <xTaskIncrementTick+0xb8>
 800398c:	f106 0018 	add.w	r0, r6, #24
 8003990:	f7ff fa7d 	bl	8002e8e <uxListRemove>
 8003994:	2214      	movs	r2, #20
 8003996:	6af0      	ldr	r0, [r6, #44]	; 0x2c
 8003998:	f8da 1000 	ldr.w	r1, [sl]
 800399c:	4b13      	ldr	r3, [pc, #76]	; (80039ec <xTaskIncrementTick+0x110>)
 800399e:	4288      	cmp	r0, r1
 80039a0:	bf88      	it	hi
 80039a2:	f8ca 0000 	strhi.w	r0, [sl]
 80039a6:	4641      	mov	r1, r8
 80039a8:	fb02 3000 	mla	r0, r2, r0, r3
 80039ac:	f7ff fa4c 	bl	8002e48 <vListInsertEnd>
 80039b0:	6838      	ldr	r0, [r7, #0]
 80039b2:	6af1      	ldr	r1, [r6, #44]	; 0x2c
 80039b4:	6ac2      	ldr	r2, [r0, #44]	; 0x2c
 80039b6:	4291      	cmp	r1, r2
 80039b8:	bf28      	it	cs
 80039ba:	f04f 0b01 	movcs.w	fp, #1
 80039be:	e7cd      	b.n	800395c <xTaskIncrementTick+0x80>
 80039c0:	4a0c      	ldr	r2, [pc, #48]	; (80039f4 <xTaskIncrementTick+0x118>)
 80039c2:	f04f 0b00 	mov.w	fp, #0
 80039c6:	6813      	ldr	r3, [r2, #0]
 80039c8:	3301      	adds	r3, #1
 80039ca:	6013      	str	r3, [r2, #0]
 80039cc:	e7ba      	b.n	8003944 <xTaskIncrementTick+0x68>
 80039ce:	bf00      	nop
 80039d0:	20000bd4 	.word	0x20000bd4
 80039d4:	20000c50 	.word	0x20000c50
 80039d8:	20000760 	.word	0x20000760
 80039dc:	20000764 	.word	0x20000764
 80039e0:	20000c0c 	.word	0x20000c0c
 80039e4:	20000c08 	.word	0x20000c08
 80039e8:	2000075c 	.word	0x2000075c
 80039ec:	20000768 	.word	0x20000768
 80039f0:	20000c54 	.word	0x20000c54
 80039f4:	20000bd0 	.word	0x20000bd0
 80039f8:	20000bdc 	.word	0x20000bdc

080039fc <xTaskResumeAll>:
 80039fc:	e92d 41f0 	stmdb	sp!, {r4, r5, r6, r7, r8, lr}
 8003a00:	4c2f      	ldr	r4, [pc, #188]	; (8003ac0 <xTaskResumeAll+0xc4>)
 8003a02:	6823      	ldr	r3, [r4, #0]
 8003a04:	b943      	cbnz	r3, 8003a18 <xTaskResumeAll+0x1c>
 8003a06:	f04f 0350 	mov.w	r3, #80	; 0x50
 8003a0a:	f383 8811 	msr	BASEPRI, r3
 8003a0e:	f3bf 8f6f 	isb	sy
 8003a12:	f3bf 8f4f 	dsb	sy
 8003a16:	e7fe      	b.n	8003a16 <xTaskResumeAll+0x1a>
 8003a18:	f000 fc0c 	bl	8004234 <vPortEnterCritical>
 8003a1c:	6823      	ldr	r3, [r4, #0]
 8003a1e:	3b01      	subs	r3, #1
 8003a20:	6023      	str	r3, [r4, #0]
 8003a22:	6824      	ldr	r4, [r4, #0]
 8003a24:	b12c      	cbz	r4, 8003a32 <xTaskResumeAll+0x36>
 8003a26:	2400      	movs	r4, #0
 8003a28:	f000 fc26 	bl	8004278 <vPortExitCritical>
 8003a2c:	4620      	mov	r0, r4
 8003a2e:	e8bd 81f0 	ldmia.w	sp!, {r4, r5, r6, r7, r8, pc}
 8003a32:	4b24      	ldr	r3, [pc, #144]	; (8003ac4 <xTaskResumeAll+0xc8>)
 8003a34:	681b      	ldr	r3, [r3, #0]
 8003a36:	2b00      	cmp	r3, #0
 8003a38:	d0f5      	beq.n	8003a26 <xTaskResumeAll+0x2a>
 8003a3a:	4d23      	ldr	r5, [pc, #140]	; (8003ac8 <xTaskResumeAll+0xcc>)
 8003a3c:	4e23      	ldr	r6, [pc, #140]	; (8003acc <xTaskResumeAll+0xd0>)
 8003a3e:	f8df 80a0 	ldr.w	r8, [pc, #160]	; 8003ae0 <xTaskResumeAll+0xe4>
 8003a42:	e01d      	b.n	8003a80 <xTaskResumeAll+0x84>
 8003a44:	68eb      	ldr	r3, [r5, #12]
 8003a46:	68dc      	ldr	r4, [r3, #12]
 8003a48:	1d27      	adds	r7, r4, #4
 8003a4a:	f104 0018 	add.w	r0, r4, #24
 8003a4e:	f7ff fa1e 	bl	8002e8e <uxListRemove>
 8003a52:	4638      	mov	r0, r7
 8003a54:	f7ff fa1b 	bl	8002e8e <uxListRemove>
 8003a58:	2014      	movs	r0, #20
 8003a5a:	6ae3      	ldr	r3, [r4, #44]	; 0x2c
 8003a5c:	6832      	ldr	r2, [r6, #0]
 8003a5e:	fb00 8003 	mla	r0, r0, r3, r8
 8003a62:	4293      	cmp	r3, r2
 8003a64:	4639      	mov	r1, r7
 8003a66:	bf88      	it	hi
 8003a68:	6033      	strhi	r3, [r6, #0]
 8003a6a:	f7ff f9ed 	bl	8002e48 <vListInsertEnd>
 8003a6e:	4b18      	ldr	r3, [pc, #96]	; (8003ad0 <xTaskResumeAll+0xd4>)
 8003a70:	6ae2      	ldr	r2, [r4, #44]	; 0x2c
 8003a72:	681b      	ldr	r3, [r3, #0]
 8003a74:	6adb      	ldr	r3, [r3, #44]	; 0x2c
 8003a76:	429a      	cmp	r2, r3
 8003a78:	d302      	bcc.n	8003a80 <xTaskResumeAll+0x84>
 8003a7a:	2201      	movs	r2, #1
 8003a7c:	4b15      	ldr	r3, [pc, #84]	; (8003ad4 <xTaskResumeAll+0xd8>)
 8003a7e:	601a      	str	r2, [r3, #0]
 8003a80:	682b      	ldr	r3, [r5, #0]
 8003a82:	2b00      	cmp	r3, #0
 8003a84:	d1de      	bne.n	8003a44 <xTaskResumeAll+0x48>
 8003a86:	b10c      	cbz	r4, 8003a8c <xTaskResumeAll+0x90>
 8003a88:	f7ff fde2 	bl	8003650 <prvResetNextTaskUnblockTime>
 8003a8c:	4d12      	ldr	r5, [pc, #72]	; (8003ad8 <xTaskResumeAll+0xdc>)
 8003a8e:	682c      	ldr	r4, [r5, #0]
 8003a90:	b144      	cbz	r4, 8003aa4 <xTaskResumeAll+0xa8>
 8003a92:	2701      	movs	r7, #1
 8003a94:	4e0f      	ldr	r6, [pc, #60]	; (8003ad4 <xTaskResumeAll+0xd8>)
 8003a96:	f7ff ff21 	bl	80038dc <xTaskIncrementTick>
 8003a9a:	b100      	cbz	r0, 8003a9e <xTaskResumeAll+0xa2>
 8003a9c:	6037      	str	r7, [r6, #0]
 8003a9e:	3c01      	subs	r4, #1
 8003aa0:	d1f9      	bne.n	8003a96 <xTaskResumeAll+0x9a>
 8003aa2:	602c      	str	r4, [r5, #0]
 8003aa4:	4b0b      	ldr	r3, [pc, #44]	; (8003ad4 <xTaskResumeAll+0xd8>)
 8003aa6:	681b      	ldr	r3, [r3, #0]
 8003aa8:	2b00      	cmp	r3, #0
 8003aaa:	d0bc      	beq.n	8003a26 <xTaskResumeAll+0x2a>
 8003aac:	f04f 5280 	mov.w	r2, #268435456	; 0x10000000
 8003ab0:	4b0a      	ldr	r3, [pc, #40]	; (8003adc <xTaskResumeAll+0xe0>)
 8003ab2:	601a      	str	r2, [r3, #0]
 8003ab4:	f3bf 8f4f 	dsb	sy
 8003ab8:	f3bf 8f6f 	isb	sy
 8003abc:	2401      	movs	r4, #1
 8003abe:	e7b3      	b.n	8003a28 <xTaskResumeAll+0x2c>
 8003ac0:	20000bd4 	.word	0x20000bd4
 8003ac4:	20000bc8 	.word	0x20000bc8
 8003ac8:	20000c10 	.word	0x20000c10
 8003acc:	20000bdc 	.word	0x20000bdc
 8003ad0:	2000075c 	.word	0x2000075c
 8003ad4:	20000c54 	.word	0x20000c54
 8003ad8:	20000bd0 	.word	0x20000bd0
 8003adc:	e000ed04 	.word	0xe000ed04
 8003ae0:	20000768 	.word	0x20000768

08003ae4 <vTaskDelay>:
 8003ae4:	b508      	push	{r3, lr}
 8003ae6:	b940      	cbnz	r0, 8003afa <vTaskDelay+0x16>
 8003ae8:	f04f 5280 	mov.w	r2, #268435456	; 0x10000000
 8003aec:	4b0d      	ldr	r3, [pc, #52]	; (8003b24 <vTaskDelay+0x40>)
 8003aee:	601a      	str	r2, [r3, #0]
 8003af0:	f3bf 8f4f 	dsb	sy
 8003af4:	f3bf 8f6f 	isb	sy
 8003af8:	bd08      	pop	{r3, pc}
 8003afa:	4b0b      	ldr	r3, [pc, #44]	; (8003b28 <vTaskDelay+0x44>)
 8003afc:	6819      	ldr	r1, [r3, #0]
 8003afe:	b141      	cbz	r1, 8003b12 <vTaskDelay+0x2e>
 8003b00:	f04f 0350 	mov.w	r3, #80	; 0x50
 8003b04:	f383 8811 	msr	BASEPRI, r3
 8003b08:	f3bf 8f6f 	isb	sy
 8003b0c:	f3bf 8f4f 	dsb	sy
 8003b10:	e7fe      	b.n	8003b10 <vTaskDelay+0x2c>
 8003b12:	f7ff fed5 	bl	80038c0 <vTaskSuspendAll>
 8003b16:	f7ff fdf1 	bl	80036fc <prvAddCurrentTaskToDelayedList>
 8003b1a:	f7ff ff6f 	bl	80039fc <xTaskResumeAll>
 8003b1e:	2800      	cmp	r0, #0
 8003b20:	d0e2      	beq.n	8003ae8 <vTaskDelay+0x4>
 8003b22:	e7e9      	b.n	8003af8 <vTaskDelay+0x14>
 8003b24:	e000ed04 	.word	0xe000ed04
 8003b28:	20000bd4 	.word	0x20000bd4

08003b2c <vTaskSwitchContext>:
 8003b2c:	4b18      	ldr	r3, [pc, #96]	; (8003b90 <vTaskSwitchContext+0x64>)
 8003b2e:	b5f0      	push	{r4, r5, r6, r7, lr}
 8003b30:	681a      	ldr	r2, [r3, #0]
 8003b32:	4b18      	ldr	r3, [pc, #96]	; (8003b94 <vTaskSwitchContext+0x68>)
 8003b34:	b112      	cbz	r2, 8003b3c <vTaskSwitchContext+0x10>
 8003b36:	2201      	movs	r2, #1
 8003b38:	601a      	str	r2, [r3, #0]
 8003b3a:	bdf0      	pop	{r4, r5, r6, r7, pc}
 8003b3c:	601a      	str	r2, [r3, #0]
 8003b3e:	4a16      	ldr	r2, [pc, #88]	; (8003b98 <vTaskSwitchContext+0x6c>)
 8003b40:	2714      	movs	r7, #20
 8003b42:	4616      	mov	r6, r2
 8003b44:	4d15      	ldr	r5, [pc, #84]	; (8003b9c <vTaskSwitchContext+0x70>)
 8003b46:	682b      	ldr	r3, [r5, #0]
 8003b48:	fb07 f103 	mul.w	r1, r7, r3
 8003b4c:	5854      	ldr	r4, [r2, r1]
 8003b4e:	1850      	adds	r0, r2, r1
 8003b50:	b194      	cbz	r4, 8003b78 <vTaskSwitchContext+0x4c>
 8003b52:	6844      	ldr	r4, [r0, #4]
 8003b54:	3108      	adds	r1, #8
 8003b56:	6864      	ldr	r4, [r4, #4]
 8003b58:	440a      	add	r2, r1
 8003b5a:	4294      	cmp	r4, r2
 8003b5c:	bf08      	it	eq
 8003b5e:	6862      	ldreq	r2, [r4, #4]
 8003b60:	6044      	str	r4, [r0, #4]
 8003b62:	bf08      	it	eq
 8003b64:	6042      	streq	r2, [r0, #4]
 8003b66:	2214      	movs	r2, #20
 8003b68:	fb02 6203 	mla	r2, r2, r3, r6
 8003b6c:	6852      	ldr	r2, [r2, #4]
 8003b6e:	68d1      	ldr	r1, [r2, #12]
 8003b70:	4a0b      	ldr	r2, [pc, #44]	; (8003ba0 <vTaskSwitchContext+0x74>)
 8003b72:	6011      	str	r1, [r2, #0]
 8003b74:	602b      	str	r3, [r5, #0]
 8003b76:	e7e0      	b.n	8003b3a <vTaskSwitchContext+0xe>
 8003b78:	b943      	cbnz	r3, 8003b8c <vTaskSwitchContext+0x60>
 8003b7a:	f04f 0350 	mov.w	r3, #80	; 0x50
 8003b7e:	f383 8811 	msr	BASEPRI, r3
 8003b82:	f3bf 8f6f 	isb	sy
 8003b86:	f3bf 8f4f 	dsb	sy
 8003b8a:	e7fe      	b.n	8003b8a <vTaskSwitchContext+0x5e>
 8003b8c:	3b01      	subs	r3, #1
 8003b8e:	e7db      	b.n	8003b48 <vTaskSwitchContext+0x1c>
 8003b90:	20000bd4 	.word	0x20000bd4
 8003b94:	20000c54 	.word	0x20000c54
 8003b98:	20000768 	.word	0x20000768
 8003b9c:	20000bdc 	.word	0x20000bdc
 8003ba0:	2000075c 	.word	0x2000075c

08003ba4 <vTaskPlaceOnEventList>:
 8003ba4:	b510      	push	{r4, lr}
 8003ba6:	460c      	mov	r4, r1
 8003ba8:	b940      	cbnz	r0, 8003bbc <vTaskPlaceOnEventList+0x18>
 8003baa:	f04f 0350 	mov.w	r3, #80	; 0x50
 8003bae:	f383 8811 	msr	BASEPRI, r3
 8003bb2:	f3bf 8f6f 	isb	sy
 8003bb6:	f3bf 8f4f 	dsb	sy
 8003bba:	e7fe      	b.n	8003bba <vTaskPlaceOnEventList+0x16>
 8003bbc:	4b05      	ldr	r3, [pc, #20]	; (8003bd4 <vTaskPlaceOnEventList+0x30>)
 8003bbe:	6819      	ldr	r1, [r3, #0]
 8003bc0:	3118      	adds	r1, #24
 8003bc2:	f7ff f94d 	bl	8002e60 <vListInsert>
 8003bc6:	4620      	mov	r0, r4
 8003bc8:	e8bd 4010 	ldmia.w	sp!, {r4, lr}
 8003bcc:	2101      	movs	r1, #1
 8003bce:	f7ff bd95 	b.w	80036fc <prvAddCurrentTaskToDelayedList>
 8003bd2:	bf00      	nop
 8003bd4:	2000075c 	.word	0x2000075c

08003bd8 <vTaskPlaceOnEventListRestricted>:
 8003bd8:	b538      	push	{r3, r4, r5, lr}
 8003bda:	460d      	mov	r5, r1
 8003bdc:	4614      	mov	r4, r2
 8003bde:	b940      	cbnz	r0, 8003bf2 <vTaskPlaceOnEventListRestricted+0x1a>
 8003be0:	f04f 0350 	mov.w	r3, #80	; 0x50
 8003be4:	f383 8811 	msr	BASEPRI, r3
 8003be8:	f3bf 8f6f 	isb	sy
 8003bec:	f3bf 8f4f 	dsb	sy
 8003bf0:	e7fe      	b.n	8003bf0 <vTaskPlaceOnEventListRestricted+0x18>
 8003bf2:	4b08      	ldr	r3, [pc, #32]	; (8003c14 <vTaskPlaceOnEventListRestricted+0x3c>)
 8003bf4:	6819      	ldr	r1, [r3, #0]
 8003bf6:	3118      	adds	r1, #24
 8003bf8:	f7ff f926 	bl	8002e48 <vListInsertEnd>
 8003bfc:	2c00      	cmp	r4, #0
 8003bfe:	4621      	mov	r1, r4
 8003c00:	bf08      	it	eq
 8003c02:	4628      	moveq	r0, r5
 8003c04:	e8bd 4038 	ldmia.w	sp!, {r3, r4, r5, lr}
 8003c08:	bf18      	it	ne
 8003c0a:	f04f 30ff 	movne.w	r0, #4294967295
 8003c0e:	f7ff bd75 	b.w	80036fc <prvAddCurrentTaskToDelayedList>
 8003c12:	bf00      	nop
 8003c14:	2000075c 	.word	0x2000075c

08003c18 <xTaskRemoveFromEventList>:
 8003c18:	b538      	push	{r3, r4, r5, lr}
 8003c1a:	68c3      	ldr	r3, [r0, #12]
 8003c1c:	68dc      	ldr	r4, [r3, #12]
 8003c1e:	b944      	cbnz	r4, 8003c32 <xTaskRemoveFromEventList+0x1a>
 8003c20:	f04f 0350 	mov.w	r3, #80	; 0x50
 8003c24:	f383 8811 	msr	BASEPRI, r3
 8003c28:	f3bf 8f6f 	isb	sy
 8003c2c:	f3bf 8f4f 	dsb	sy
 8003c30:	e7fe      	b.n	8003c30 <xTaskRemoveFromEventList+0x18>
 8003c32:	f104 0518 	add.w	r5, r4, #24
 8003c36:	4628      	mov	r0, r5
 8003c38:	f7ff f929 	bl	8002e8e <uxListRemove>
 8003c3c:	4b10      	ldr	r3, [pc, #64]	; (8003c80 <xTaskRemoveFromEventList+0x68>)
 8003c3e:	681b      	ldr	r3, [r3, #0]
 8003c40:	b9db      	cbnz	r3, 8003c7a <xTaskRemoveFromEventList+0x62>
 8003c42:	1d25      	adds	r5, r4, #4
 8003c44:	4628      	mov	r0, r5
 8003c46:	f7ff f922 	bl	8002e8e <uxListRemove>
 8003c4a:	4a0e      	ldr	r2, [pc, #56]	; (8003c84 <xTaskRemoveFromEventList+0x6c>)
 8003c4c:	2014      	movs	r0, #20
 8003c4e:	6811      	ldr	r1, [r2, #0]
 8003c50:	6ae3      	ldr	r3, [r4, #44]	; 0x2c
 8003c52:	428b      	cmp	r3, r1
 8003c54:	4629      	mov	r1, r5
 8003c56:	bf88      	it	hi
 8003c58:	6013      	strhi	r3, [r2, #0]
 8003c5a:	4a0b      	ldr	r2, [pc, #44]	; (8003c88 <xTaskRemoveFromEventList+0x70>)
 8003c5c:	fb00 2003 	mla	r0, r0, r3, r2
 8003c60:	f7ff f8f2 	bl	8002e48 <vListInsertEnd>
 8003c64:	4b09      	ldr	r3, [pc, #36]	; (8003c8c <xTaskRemoveFromEventList+0x74>)
 8003c66:	6ae2      	ldr	r2, [r4, #44]	; 0x2c
 8003c68:	681b      	ldr	r3, [r3, #0]
 8003c6a:	6adb      	ldr	r3, [r3, #44]	; 0x2c
 8003c6c:	429a      	cmp	r2, r3
 8003c6e:	bf85      	ittet	hi
 8003c70:	2001      	movhi	r0, #1
 8003c72:	4b07      	ldrhi	r3, [pc, #28]	; (8003c90 <xTaskRemoveFromEventList+0x78>)
 8003c74:	2000      	movls	r0, #0
 8003c76:	6018      	strhi	r0, [r3, #0]
 8003c78:	bd38      	pop	{r3, r4, r5, pc}
 8003c7a:	4629      	mov	r1, r5
 8003c7c:	4805      	ldr	r0, [pc, #20]	; (8003c94 <xTaskRemoveFromEventList+0x7c>)
 8003c7e:	e7ef      	b.n	8003c60 <xTaskRemoveFromEventList+0x48>
 8003c80:	20000bd4 	.word	0x20000bd4
 8003c84:	20000bdc 	.word	0x20000bdc
 8003c88:	20000768 	.word	0x20000768
 8003c8c:	2000075c 	.word	0x2000075c
 8003c90:	20000c54 	.word	0x20000c54
 8003c94:	20000c10 	.word	0x20000c10

08003c98 <vTaskInternalSetTimeOutState>:
 8003c98:	4b03      	ldr	r3, [pc, #12]	; (8003ca8 <vTaskInternalSetTimeOutState+0x10>)
 8003c9a:	681b      	ldr	r3, [r3, #0]
 8003c9c:	6003      	str	r3, [r0, #0]
 8003c9e:	4b03      	ldr	r3, [pc, #12]	; (8003cac <vTaskInternalSetTimeOutState+0x14>)
 8003ca0:	681b      	ldr	r3, [r3, #0]
 8003ca2:	6043      	str	r3, [r0, #4]
 8003ca4:	4770      	bx	lr
 8003ca6:	bf00      	nop
 8003ca8:	20000c0c 	.word	0x20000c0c
 8003cac:	20000c50 	.word	0x20000c50

08003cb0 <xTaskCheckForTimeOut>:
 8003cb0:	b5f8      	push	{r3, r4, r5, r6, r7, lr}
 8003cb2:	460c      	mov	r4, r1
 8003cb4:	4605      	mov	r5, r0
 8003cb6:	b940      	cbnz	r0, 8003cca <xTaskCheckForTimeOut+0x1a>
 8003cb8:	f04f 0350 	mov.w	r3, #80	; 0x50
 8003cbc:	f383 8811 	msr	BASEPRI, r3
 8003cc0:	f3bf 8f6f 	isb	sy
 8003cc4:	f3bf 8f4f 	dsb	sy
 8003cc8:	e7fe      	b.n	8003cc8 <xTaskCheckForTimeOut+0x18>
 8003cca:	b941      	cbnz	r1, 8003cde <xTaskCheckForTimeOut+0x2e>
 8003ccc:	f04f 0350 	mov.w	r3, #80	; 0x50
 8003cd0:	f383 8811 	msr	BASEPRI, r3
 8003cd4:	f3bf 8f6f 	isb	sy
 8003cd8:	f3bf 8f4f 	dsb	sy
 8003cdc:	e7fe      	b.n	8003cdc <xTaskCheckForTimeOut+0x2c>
 8003cde:	f000 faa9 	bl	8004234 <vPortEnterCritical>
 8003ce2:	4b0f      	ldr	r3, [pc, #60]	; (8003d20 <xTaskCheckForTimeOut+0x70>)
 8003ce4:	6868      	ldr	r0, [r5, #4]
 8003ce6:	6819      	ldr	r1, [r3, #0]
 8003ce8:	6823      	ldr	r3, [r4, #0]
 8003cea:	1a0a      	subs	r2, r1, r0
 8003cec:	1c5e      	adds	r6, r3, #1
 8003cee:	d00d      	beq.n	8003d0c <xTaskCheckForTimeOut+0x5c>
 8003cf0:	4e0c      	ldr	r6, [pc, #48]	; (8003d24 <xTaskCheckForTimeOut+0x74>)
 8003cf2:	682f      	ldr	r7, [r5, #0]
 8003cf4:	6836      	ldr	r6, [r6, #0]
 8003cf6:	42b7      	cmp	r7, r6
 8003cf8:	d001      	beq.n	8003cfe <xTaskCheckForTimeOut+0x4e>
 8003cfa:	4288      	cmp	r0, r1
 8003cfc:	d90d      	bls.n	8003d1a <xTaskCheckForTimeOut+0x6a>
 8003cfe:	4293      	cmp	r3, r2
 8003d00:	d909      	bls.n	8003d16 <xTaskCheckForTimeOut+0x66>
 8003d02:	1a9b      	subs	r3, r3, r2
 8003d04:	6023      	str	r3, [r4, #0]
 8003d06:	4628      	mov	r0, r5
 8003d08:	f7ff ffc6 	bl	8003c98 <vTaskInternalSetTimeOutState>
 8003d0c:	2400      	movs	r4, #0
 8003d0e:	f000 fab3 	bl	8004278 <vPortExitCritical>
 8003d12:	4620      	mov	r0, r4
 8003d14:	bdf8      	pop	{r3, r4, r5, r6, r7, pc}
 8003d16:	2300      	movs	r3, #0
 8003d18:	6023      	str	r3, [r4, #0]
 8003d1a:	2401      	movs	r4, #1
 8003d1c:	e7f7      	b.n	8003d0e <xTaskCheckForTimeOut+0x5e>
 8003d1e:	bf00      	nop
 8003d20:	20000c50 	.word	0x20000c50
 8003d24:	20000c0c 	.word	0x20000c0c

08003d28 <vTaskMissedYield>:
 8003d28:	2201      	movs	r2, #1
 8003d2a:	4b01      	ldr	r3, [pc, #4]	; (8003d30 <vTaskMissedYield+0x8>)
 8003d2c:	601a      	str	r2, [r3, #0]
 8003d2e:	4770      	bx	lr
 8003d30:	20000c54 	.word	0x20000c54

08003d34 <xTaskGetSchedulerState>:
 8003d34:	4b05      	ldr	r3, [pc, #20]	; (8003d4c <xTaskGetSchedulerState+0x18>)
 8003d36:	681b      	ldr	r3, [r3, #0]
 8003d38:	b133      	cbz	r3, 8003d48 <xTaskGetSchedulerState+0x14>
 8003d3a:	4b05      	ldr	r3, [pc, #20]	; (8003d50 <xTaskGetSchedulerState+0x1c>)
 8003d3c:	681b      	ldr	r3, [r3, #0]
 8003d3e:	2b00      	cmp	r3, #0
 8003d40:	bf0c      	ite	eq
 8003d42:	2002      	moveq	r0, #2
 8003d44:	2000      	movne	r0, #0
 8003d46:	4770      	bx	lr
 8003d48:	2001      	movs	r0, #1
 8003d4a:	4770      	bx	lr
 8003d4c:	20000c24 	.word	0x20000c24
 8003d50:	20000bd4 	.word	0x20000bd4

08003d54 <xTaskPriorityDisinherit>:
 8003d54:	b538      	push	{r3, r4, r5, lr}
 8003d56:	b908      	cbnz	r0, 8003d5c <xTaskPriorityDisinherit+0x8>
 8003d58:	2000      	movs	r0, #0
 8003d5a:	bd38      	pop	{r3, r4, r5, pc}
 8003d5c:	4b1b      	ldr	r3, [pc, #108]	; (8003dcc <xTaskPriorityDisinherit+0x78>)
 8003d5e:	681c      	ldr	r4, [r3, #0]
 8003d60:	4284      	cmp	r4, r0
 8003d62:	d008      	beq.n	8003d76 <xTaskPriorityDisinherit+0x22>
 8003d64:	f04f 0350 	mov.w	r3, #80	; 0x50
 8003d68:	f383 8811 	msr	BASEPRI, r3
 8003d6c:	f3bf 8f6f 	isb	sy
 8003d70:	f3bf 8f4f 	dsb	sy
 8003d74:	e7fe      	b.n	8003d74 <xTaskPriorityDisinherit+0x20>
 8003d76:	6d23      	ldr	r3, [r4, #80]	; 0x50
 8003d78:	b943      	cbnz	r3, 8003d8c <xTaskPriorityDisinherit+0x38>
 8003d7a:	f04f 0350 	mov.w	r3, #80	; 0x50
 8003d7e:	f383 8811 	msr	BASEPRI, r3
 8003d82:	f3bf 8f6f 	isb	sy
 8003d86:	f3bf 8f4f 	dsb	sy
 8003d8a:	e7fe      	b.n	8003d8a <xTaskPriorityDisinherit+0x36>
 8003d8c:	6ae1      	ldr	r1, [r4, #44]	; 0x2c
 8003d8e:	6ce2      	ldr	r2, [r4, #76]	; 0x4c
 8003d90:	3b01      	subs	r3, #1
 8003d92:	4291      	cmp	r1, r2
 8003d94:	6523      	str	r3, [r4, #80]	; 0x50
 8003d96:	d0df      	beq.n	8003d58 <xTaskPriorityDisinherit+0x4>
 8003d98:	2b00      	cmp	r3, #0
 8003d9a:	d1dd      	bne.n	8003d58 <xTaskPriorityDisinherit+0x4>
 8003d9c:	1d25      	adds	r5, r4, #4
 8003d9e:	4628      	mov	r0, r5
 8003da0:	f7ff f875 	bl	8002e8e <uxListRemove>
 8003da4:	2014      	movs	r0, #20
 8003da6:	6ce3      	ldr	r3, [r4, #76]	; 0x4c
 8003da8:	f1c3 0238 	rsb	r2, r3, #56	; 0x38
 8003dac:	61a2      	str	r2, [r4, #24]
 8003dae:	4a08      	ldr	r2, [pc, #32]	; (8003dd0 <xTaskPriorityDisinherit+0x7c>)
 8003db0:	62e3      	str	r3, [r4, #44]	; 0x2c
 8003db2:	6811      	ldr	r1, [r2, #0]
 8003db4:	428b      	cmp	r3, r1
 8003db6:	bf88      	it	hi
 8003db8:	6013      	strhi	r3, [r2, #0]
 8003dba:	4a06      	ldr	r2, [pc, #24]	; (8003dd4 <xTaskPriorityDisinherit+0x80>)
 8003dbc:	4629      	mov	r1, r5
 8003dbe:	fb00 2003 	mla	r0, r0, r3, r2
 8003dc2:	f7ff f841 	bl	8002e48 <vListInsertEnd>
 8003dc6:	2001      	movs	r0, #1
 8003dc8:	e7c7      	b.n	8003d5a <xTaskPriorityDisinherit+0x6>
 8003dca:	bf00      	nop
 8003dcc:	2000075c 	.word	0x2000075c
 8003dd0:	20000bdc 	.word	0x20000bdc
 8003dd4:	20000768 	.word	0x20000768

08003dd8 <prvCheckForValidListAndQueue>:
 8003dd8:	b5f7      	push	{r0, r1, r2, r4, r5, r6, r7, lr}
 8003dda:	4c11      	ldr	r4, [pc, #68]	; (8003e20 <prvCheckForValidListAndQueue+0x48>)
 8003ddc:	f000 fa2a 	bl	8004234 <vPortEnterCritical>
 8003de0:	6825      	ldr	r5, [r4, #0]
 8003de2:	b9bd      	cbnz	r5, 8003e14 <prvCheckForValidListAndQueue+0x3c>
 8003de4:	4f0f      	ldr	r7, [pc, #60]	; (8003e24 <prvCheckForValidListAndQueue+0x4c>)
 8003de6:	4e10      	ldr	r6, [pc, #64]	; (8003e28 <prvCheckForValidListAndQueue+0x50>)
 8003de8:	4638      	mov	r0, r7
 8003dea:	f7ff f81f 	bl	8002e2c <vListInitialise>
 8003dee:	4630      	mov	r0, r6
 8003df0:	f7ff f81c 	bl	8002e2c <vListInitialise>
 8003df4:	4b0d      	ldr	r3, [pc, #52]	; (8003e2c <prvCheckForValidListAndQueue+0x54>)
 8003df6:	4a0e      	ldr	r2, [pc, #56]	; (8003e30 <prvCheckForValidListAndQueue+0x58>)
 8003df8:	601f      	str	r7, [r3, #0]
 8003dfa:	4b0e      	ldr	r3, [pc, #56]	; (8003e34 <prvCheckForValidListAndQueue+0x5c>)
 8003dfc:	2110      	movs	r1, #16
 8003dfe:	601e      	str	r6, [r3, #0]
 8003e00:	200a      	movs	r0, #10
 8003e02:	9500      	str	r5, [sp, #0]
 8003e04:	4b0c      	ldr	r3, [pc, #48]	; (8003e38 <prvCheckForValidListAndQueue+0x60>)
 8003e06:	f7ff f91d 	bl	8003044 <xQueueGenericCreateStatic>
 8003e0a:	6020      	str	r0, [r4, #0]
 8003e0c:	b110      	cbz	r0, 8003e14 <prvCheckForValidListAndQueue+0x3c>
 8003e0e:	490b      	ldr	r1, [pc, #44]	; (8003e3c <prvCheckForValidListAndQueue+0x64>)
 8003e10:	f7ff fb1a 	bl	8003448 <vQueueAddToRegistry>
 8003e14:	b003      	add	sp, #12
 8003e16:	e8bd 40f0 	ldmia.w	sp!, {r4, r5, r6, r7, lr}
 8003e1a:	f000 ba2d 	b.w	8004278 <vPortExitCritical>
 8003e1e:	bf00      	nop
 8003e20:	20000d7c 	.word	0x20000d7c
 8003e24:	20000d00 	.word	0x20000d00
 8003e28:	20000d14 	.word	0x20000d14
 8003e2c:	20000c58 	.word	0x20000c58
 8003e30:	20000c60 	.word	0x20000c60
 8003e34:	20000c5c 	.word	0x20000c5c
 8003e38:	20000d2c 	.word	0x20000d2c
 8003e3c:	080055d2 	.word	0x080055d2

08003e40 <prvInsertTimerInActiveList>:
 8003e40:	4291      	cmp	r1, r2
 8003e42:	b508      	push	{r3, lr}
 8003e44:	6041      	str	r1, [r0, #4]
 8003e46:	6100      	str	r0, [r0, #16]
 8003e48:	d80a      	bhi.n	8003e60 <prvInsertTimerInActiveList+0x20>
 8003e4a:	1ad2      	subs	r2, r2, r3
 8003e4c:	6983      	ldr	r3, [r0, #24]
 8003e4e:	429a      	cmp	r2, r3
 8003e50:	d20d      	bcs.n	8003e6e <prvInsertTimerInActiveList+0x2e>
 8003e52:	4b08      	ldr	r3, [pc, #32]	; (8003e74 <prvInsertTimerInActiveList+0x34>)
 8003e54:	1d01      	adds	r1, r0, #4
 8003e56:	6818      	ldr	r0, [r3, #0]
 8003e58:	f7ff f802 	bl	8002e60 <vListInsert>
 8003e5c:	2000      	movs	r0, #0
 8003e5e:	bd08      	pop	{r3, pc}
 8003e60:	429a      	cmp	r2, r3
 8003e62:	d201      	bcs.n	8003e68 <prvInsertTimerInActiveList+0x28>
 8003e64:	4299      	cmp	r1, r3
 8003e66:	d202      	bcs.n	8003e6e <prvInsertTimerInActiveList+0x2e>
 8003e68:	1d01      	adds	r1, r0, #4
 8003e6a:	4b03      	ldr	r3, [pc, #12]	; (8003e78 <prvInsertTimerInActiveList+0x38>)
 8003e6c:	e7f3      	b.n	8003e56 <prvInsertTimerInActiveList+0x16>
 8003e6e:	2001      	movs	r0, #1
 8003e70:	e7f5      	b.n	8003e5e <prvInsertTimerInActiveList+0x1e>
 8003e72:	bf00      	nop
 8003e74:	20000c5c 	.word	0x20000c5c
 8003e78:	20000c58 	.word	0x20000c58

08003e7c <xTimerCreateTimerTask>:
 8003e7c:	b510      	push	{r4, lr}
 8003e7e:	b088      	sub	sp, #32
 8003e80:	f7ff ffaa 	bl	8003dd8 <prvCheckForValidListAndQueue>
 8003e84:	4b12      	ldr	r3, [pc, #72]	; (8003ed0 <xTimerCreateTimerTask+0x54>)
 8003e86:	681b      	ldr	r3, [r3, #0]
 8003e88:	b1b3      	cbz	r3, 8003eb8 <xTimerCreateTimerTask+0x3c>
 8003e8a:	2400      	movs	r4, #0
 8003e8c:	aa07      	add	r2, sp, #28
 8003e8e:	a906      	add	r1, sp, #24
 8003e90:	a805      	add	r0, sp, #20
 8003e92:	e9cd 4405 	strd	r4, r4, [sp, #20]
 8003e96:	f7fe ffbd 	bl	8002e14 <vApplicationGetTimerTaskMemory>
 8003e9a:	9b05      	ldr	r3, [sp, #20]
 8003e9c:	9a07      	ldr	r2, [sp, #28]
 8003e9e:	9302      	str	r3, [sp, #8]
 8003ea0:	9b06      	ldr	r3, [sp, #24]
 8003ea2:	490c      	ldr	r1, [pc, #48]	; (8003ed4 <xTimerCreateTimerTask+0x58>)
 8003ea4:	9301      	str	r3, [sp, #4]
 8003ea6:	2302      	movs	r3, #2
 8003ea8:	480b      	ldr	r0, [pc, #44]	; (8003ed8 <xTimerCreateTimerTask+0x5c>)
 8003eaa:	9300      	str	r3, [sp, #0]
 8003eac:	4623      	mov	r3, r4
 8003eae:	f7ff fc5f 	bl	8003770 <xTaskCreateStatic>
 8003eb2:	4b0a      	ldr	r3, [pc, #40]	; (8003edc <xTimerCreateTimerTask+0x60>)
 8003eb4:	6018      	str	r0, [r3, #0]
 8003eb6:	b940      	cbnz	r0, 8003eca <xTimerCreateTimerTask+0x4e>
 8003eb8:	f04f 0350 	mov.w	r3, #80	; 0x50
 8003ebc:	f383 8811 	msr	BASEPRI, r3
 8003ec0:	f3bf 8f6f 	isb	sy
 8003ec4:	f3bf 8f4f 	dsb	sy
 8003ec8:	e7fe      	b.n	8003ec8 <xTimerCreateTimerTask+0x4c>
 8003eca:	2001      	movs	r0, #1
 8003ecc:	b008      	add	sp, #32
 8003ece:	bd10      	pop	{r4, pc}
 8003ed0:	20000d7c 	.word	0x20000d7c
 8003ed4:	080055d7 	.word	0x080055d7
 8003ed8:	08003fb5 	.word	0x08003fb5
 8003edc:	20000d80 	.word	0x20000d80

08003ee0 <xTimerGenericCommand>:
 8003ee0:	b530      	push	{r4, r5, lr}
 8003ee2:	4615      	mov	r5, r2
 8003ee4:	b085      	sub	sp, #20
 8003ee6:	461a      	mov	r2, r3
 8003ee8:	4603      	mov	r3, r0
 8003eea:	b940      	cbnz	r0, 8003efe <xTimerGenericCommand+0x1e>
 8003eec:	f04f 0350 	mov.w	r3, #80	; 0x50
 8003ef0:	f383 8811 	msr	BASEPRI, r3
 8003ef4:	f3bf 8f6f 	isb	sy
 8003ef8:	f3bf 8f4f 	dsb	sy
 8003efc:	e7fe      	b.n	8003efc <xTimerGenericCommand+0x1c>
 8003efe:	4c0d      	ldr	r4, [pc, #52]	; (8003f34 <xTimerGenericCommand+0x54>)
 8003f00:	6820      	ldr	r0, [r4, #0]
 8003f02:	b178      	cbz	r0, 8003f24 <xTimerGenericCommand+0x44>
 8003f04:	2905      	cmp	r1, #5
 8003f06:	e9cd 1500 	strd	r1, r5, [sp]
 8003f0a:	9302      	str	r3, [sp, #8]
 8003f0c:	dc0c      	bgt.n	8003f28 <xTimerGenericCommand+0x48>
 8003f0e:	f7ff ff11 	bl	8003d34 <xTaskGetSchedulerState>
 8003f12:	2300      	movs	r3, #0
 8003f14:	2802      	cmp	r0, #2
 8003f16:	bf0c      	ite	eq
 8003f18:	9a08      	ldreq	r2, [sp, #32]
 8003f1a:	461a      	movne	r2, r3
 8003f1c:	4669      	mov	r1, sp
 8003f1e:	6820      	ldr	r0, [r4, #0]
 8003f20:	f7ff f8de 	bl	80030e0 <xQueueGenericSend>
 8003f24:	b005      	add	sp, #20
 8003f26:	bd30      	pop	{r4, r5, pc}
 8003f28:	2300      	movs	r3, #0
 8003f2a:	4669      	mov	r1, sp
 8003f2c:	f7ff f98a 	bl	8003244 <xQueueGenericSendFromISR>
 8003f30:	e7f8      	b.n	8003f24 <xTimerGenericCommand+0x44>
 8003f32:	bf00      	nop
 8003f34:	20000d7c 	.word	0x20000d7c

08003f38 <prvSwitchTimerLists>:
 8003f38:	e92d 41f3 	stmdb	sp!, {r0, r1, r4, r5, r6, r7, r8, lr}
 8003f3c:	f04f 0800 	mov.w	r8, #0
 8003f40:	4d1a      	ldr	r5, [pc, #104]	; (8003fac <prvSwitchTimerLists+0x74>)
 8003f42:	682b      	ldr	r3, [r5, #0]
 8003f44:	681a      	ldr	r2, [r3, #0]
 8003f46:	b932      	cbnz	r2, 8003f56 <prvSwitchTimerLists+0x1e>
 8003f48:	4a19      	ldr	r2, [pc, #100]	; (8003fb0 <prvSwitchTimerLists+0x78>)
 8003f4a:	6811      	ldr	r1, [r2, #0]
 8003f4c:	6013      	str	r3, [r2, #0]
 8003f4e:	6029      	str	r1, [r5, #0]
 8003f50:	b002      	add	sp, #8
 8003f52:	e8bd 81f0 	ldmia.w	sp!, {r4, r5, r6, r7, r8, pc}
 8003f56:	68db      	ldr	r3, [r3, #12]
 8003f58:	68dc      	ldr	r4, [r3, #12]
 8003f5a:	681e      	ldr	r6, [r3, #0]
 8003f5c:	1d27      	adds	r7, r4, #4
 8003f5e:	4638      	mov	r0, r7
 8003f60:	f7fe ff95 	bl	8002e8e <uxListRemove>
 8003f64:	6a63      	ldr	r3, [r4, #36]	; 0x24
 8003f66:	4620      	mov	r0, r4
 8003f68:	4798      	blx	r3
 8003f6a:	69e3      	ldr	r3, [r4, #28]
 8003f6c:	2b01      	cmp	r3, #1
 8003f6e:	d1e8      	bne.n	8003f42 <prvSwitchTimerLists+0xa>
 8003f70:	69a3      	ldr	r3, [r4, #24]
 8003f72:	4433      	add	r3, r6
 8003f74:	429e      	cmp	r6, r3
 8003f76:	d206      	bcs.n	8003f86 <prvSwitchTimerLists+0x4e>
 8003f78:	6063      	str	r3, [r4, #4]
 8003f7a:	6124      	str	r4, [r4, #16]
 8003f7c:	4639      	mov	r1, r7
 8003f7e:	6828      	ldr	r0, [r5, #0]
 8003f80:	f7fe ff6e 	bl	8002e60 <vListInsert>
 8003f84:	e7dd      	b.n	8003f42 <prvSwitchTimerLists+0xa>
 8003f86:	2300      	movs	r3, #0
 8003f88:	f8cd 8000 	str.w	r8, [sp]
 8003f8c:	4632      	mov	r2, r6
 8003f8e:	4619      	mov	r1, r3
 8003f90:	4620      	mov	r0, r4
 8003f92:	f7ff ffa5 	bl	8003ee0 <xTimerGenericCommand>
 8003f96:	2800      	cmp	r0, #0
 8003f98:	d1d3      	bne.n	8003f42 <prvSwitchTimerLists+0xa>
 8003f9a:	f04f 0350 	mov.w	r3, #80	; 0x50
 8003f9e:	f383 8811 	msr	BASEPRI, r3
 8003fa2:	f3bf 8f6f 	isb	sy
 8003fa6:	f3bf 8f4f 	dsb	sy
 8003faa:	e7fe      	b.n	8003faa <prvSwitchTimerLists+0x72>
 8003fac:	20000c58 	.word	0x20000c58
 8003fb0:	20000c5c 	.word	0x20000c5c

08003fb4 <prvTimerTask>:
 8003fb4:	e92d 4ff0 	stmdb	sp!, {r4, r5, r6, r7, r8, r9, sl, fp, lr}
 8003fb8:	4d6d      	ldr	r5, [pc, #436]	; (8004170 <prvTimerTask+0x1bc>)
 8003fba:	f8df 81c4 	ldr.w	r8, [pc, #452]	; 8004180 <prvTimerTask+0x1cc>
 8003fbe:	462f      	mov	r7, r5
 8003fc0:	b087      	sub	sp, #28
 8003fc2:	682b      	ldr	r3, [r5, #0]
 8003fc4:	f8d3 b000 	ldr.w	fp, [r3]
 8003fc8:	f1bb 0f00 	cmp.w	fp, #0
 8003fcc:	d04b      	beq.n	8004066 <prvTimerTask+0xb2>
 8003fce:	68db      	ldr	r3, [r3, #12]
 8003fd0:	f8d3 a000 	ldr.w	sl, [r3]
 8003fd4:	f7ff fc74 	bl	80038c0 <vTaskSuspendAll>
 8003fd8:	f7ff fc7a 	bl	80038d0 <xTaskGetTickCount>
 8003fdc:	4c65      	ldr	r4, [pc, #404]	; (8004174 <prvTimerTask+0x1c0>)
 8003fde:	4681      	mov	r9, r0
 8003fe0:	6823      	ldr	r3, [r4, #0]
 8003fe2:	4626      	mov	r6, r4
 8003fe4:	4298      	cmp	r0, r3
 8003fe6:	d240      	bcs.n	800406a <prvTimerTask+0xb6>
 8003fe8:	f7ff ffa6 	bl	8003f38 <prvSwitchTimerLists>
 8003fec:	f8c4 9000 	str.w	r9, [r4]
 8003ff0:	f7ff fd04 	bl	80039fc <xTaskResumeAll>
 8003ff4:	f8df 9184 	ldr.w	r9, [pc, #388]	; 800417c <prvTimerTask+0x1c8>
 8003ff8:	2200      	movs	r2, #0
 8003ffa:	a902      	add	r1, sp, #8
 8003ffc:	f8d9 0000 	ldr.w	r0, [r9]
 8004000:	f7ff f982 	bl	8003308 <xQueueReceive>
 8004004:	2800      	cmp	r0, #0
 8004006:	d0dc      	beq.n	8003fc2 <prvTimerTask+0xe>
 8004008:	9b02      	ldr	r3, [sp, #8]
 800400a:	2b00      	cmp	r3, #0
 800400c:	da03      	bge.n	8004016 <prvTimerTask+0x62>
 800400e:	e9dd 0104 	ldrd	r0, r1, [sp, #16]
 8004012:	9b03      	ldr	r3, [sp, #12]
 8004014:	4798      	blx	r3
 8004016:	9b02      	ldr	r3, [sp, #8]
 8004018:	2b00      	cmp	r3, #0
 800401a:	dbed      	blt.n	8003ff8 <prvTimerTask+0x44>
 800401c:	9c04      	ldr	r4, [sp, #16]
 800401e:	6963      	ldr	r3, [r4, #20]
 8004020:	b113      	cbz	r3, 8004028 <prvTimerTask+0x74>
 8004022:	1d20      	adds	r0, r4, #4
 8004024:	f7fe ff33 	bl	8002e8e <uxListRemove>
 8004028:	f7ff fc52 	bl	80038d0 <xTaskGetTickCount>
 800402c:	6833      	ldr	r3, [r6, #0]
 800402e:	4683      	mov	fp, r0
 8004030:	4298      	cmp	r0, r3
 8004032:	d201      	bcs.n	8004038 <prvTimerTask+0x84>
 8004034:	f7ff ff80 	bl	8003f38 <prvSwitchTimerLists>
 8004038:	9a02      	ldr	r2, [sp, #8]
 800403a:	f8c6 b000 	str.w	fp, [r6]
 800403e:	2a09      	cmp	r2, #9
 8004040:	d8da      	bhi.n	8003ff8 <prvTimerTask+0x44>
 8004042:	2301      	movs	r3, #1
 8004044:	4093      	lsls	r3, r2
 8004046:	f413 7a04 	ands.w	sl, r3, #528	; 0x210
 800404a:	d17e      	bne.n	800414a <prvTimerTask+0x196>
 800404c:	f013 0fc7 	tst.w	r3, #199	; 0xc7
 8004050:	d154      	bne.n	80040fc <prvTimerTask+0x148>
 8004052:	069b      	lsls	r3, r3, #26
 8004054:	d5d0      	bpl.n	8003ff8 <prvTimerTask+0x44>
 8004056:	f894 302c 	ldrb.w	r3, [r4, #44]	; 0x2c
 800405a:	2b00      	cmp	r3, #0
 800405c:	d1cc      	bne.n	8003ff8 <prvTimerTask+0x44>
 800405e:	4620      	mov	r0, r4
 8004060:	f000 faa8 	bl	80045b4 <vPortFree>
 8004064:	e7c8      	b.n	8003ff8 <prvTimerTask+0x44>
 8004066:	46da      	mov	sl, fp
 8004068:	e7b4      	b.n	8003fd4 <prvTimerTask+0x20>
 800406a:	6020      	str	r0, [r4, #0]
 800406c:	f1bb 0f00 	cmp.w	fp, #0
 8004070:	d029      	beq.n	80040c6 <prvTimerTask+0x112>
 8004072:	4582      	cmp	sl, r0
 8004074:	d840      	bhi.n	80040f8 <prvTimerTask+0x144>
 8004076:	f7ff fcc1 	bl	80039fc <xTaskResumeAll>
 800407a:	683b      	ldr	r3, [r7, #0]
 800407c:	68db      	ldr	r3, [r3, #12]
 800407e:	68dc      	ldr	r4, [r3, #12]
 8004080:	1d20      	adds	r0, r4, #4
 8004082:	f7fe ff04 	bl	8002e8e <uxListRemove>
 8004086:	69e3      	ldr	r3, [r4, #28]
 8004088:	2b01      	cmp	r3, #1
 800408a:	d118      	bne.n	80040be <prvTimerTask+0x10a>
 800408c:	69a1      	ldr	r1, [r4, #24]
 800408e:	4653      	mov	r3, sl
 8004090:	464a      	mov	r2, r9
 8004092:	4451      	add	r1, sl
 8004094:	4620      	mov	r0, r4
 8004096:	f7ff fed3 	bl	8003e40 <prvInsertTimerInActiveList>
 800409a:	b180      	cbz	r0, 80040be <prvTimerTask+0x10a>
 800409c:	2300      	movs	r3, #0
 800409e:	4652      	mov	r2, sl
 80040a0:	9300      	str	r3, [sp, #0]
 80040a2:	4619      	mov	r1, r3
 80040a4:	4620      	mov	r0, r4
 80040a6:	f7ff ff1b 	bl	8003ee0 <xTimerGenericCommand>
 80040aa:	b940      	cbnz	r0, 80040be <prvTimerTask+0x10a>
 80040ac:	f04f 0350 	mov.w	r3, #80	; 0x50
 80040b0:	f383 8811 	msr	BASEPRI, r3
 80040b4:	f3bf 8f6f 	isb	sy
 80040b8:	f3bf 8f4f 	dsb	sy
 80040bc:	e7fe      	b.n	80040bc <prvTimerTask+0x108>
 80040be:	6a63      	ldr	r3, [r4, #36]	; 0x24
 80040c0:	4620      	mov	r0, r4
 80040c2:	4798      	blx	r3
 80040c4:	e796      	b.n	8003ff4 <prvTimerTask+0x40>
 80040c6:	4b2c      	ldr	r3, [pc, #176]	; (8004178 <prvTimerTask+0x1c4>)
 80040c8:	681b      	ldr	r3, [r3, #0]
 80040ca:	681a      	ldr	r2, [r3, #0]
 80040cc:	fab2 f282 	clz	r2, r2
 80040d0:	0952      	lsrs	r2, r2, #5
 80040d2:	4b2a      	ldr	r3, [pc, #168]	; (800417c <prvTimerTask+0x1c8>)
 80040d4:	ebaa 0109 	sub.w	r1, sl, r9
 80040d8:	6818      	ldr	r0, [r3, #0]
 80040da:	f7ff f9c7 	bl	800346c <vQueueWaitForMessageRestricted>
 80040de:	f7ff fc8d 	bl	80039fc <xTaskResumeAll>
 80040e2:	2800      	cmp	r0, #0
 80040e4:	d186      	bne.n	8003ff4 <prvTimerTask+0x40>
 80040e6:	f04f 5380 	mov.w	r3, #268435456	; 0x10000000
 80040ea:	f8c8 3000 	str.w	r3, [r8]
 80040ee:	f3bf 8f4f 	dsb	sy
 80040f2:	f3bf 8f6f 	isb	sy
 80040f6:	e77d      	b.n	8003ff4 <prvTimerTask+0x40>
 80040f8:	2200      	movs	r2, #0
 80040fa:	e7ea      	b.n	80040d2 <prvTimerTask+0x11e>
 80040fc:	69a1      	ldr	r1, [r4, #24]
 80040fe:	9b03      	ldr	r3, [sp, #12]
 8004100:	465a      	mov	r2, fp
 8004102:	4419      	add	r1, r3
 8004104:	4620      	mov	r0, r4
 8004106:	f7ff fe9b 	bl	8003e40 <prvInsertTimerInActiveList>
 800410a:	2800      	cmp	r0, #0
 800410c:	f43f af74 	beq.w	8003ff8 <prvTimerTask+0x44>
 8004110:	6a63      	ldr	r3, [r4, #36]	; 0x24
 8004112:	4620      	mov	r0, r4
 8004114:	4798      	blx	r3
 8004116:	69e3      	ldr	r3, [r4, #28]
 8004118:	2b01      	cmp	r3, #1
 800411a:	f47f af6d 	bne.w	8003ff8 <prvTimerTask+0x44>
 800411e:	69a2      	ldr	r2, [r4, #24]
 8004120:	9903      	ldr	r1, [sp, #12]
 8004122:	f8cd a000 	str.w	sl, [sp]
 8004126:	440a      	add	r2, r1
 8004128:	4653      	mov	r3, sl
 800412a:	4651      	mov	r1, sl
 800412c:	4620      	mov	r0, r4
 800412e:	f7ff fed7 	bl	8003ee0 <xTimerGenericCommand>
 8004132:	2800      	cmp	r0, #0
 8004134:	f47f af60 	bne.w	8003ff8 <prvTimerTask+0x44>
 8004138:	f04f 0350 	mov.w	r3, #80	; 0x50
 800413c:	f383 8811 	msr	BASEPRI, r3
 8004140:	f3bf 8f6f 	isb	sy
 8004144:	f3bf 8f4f 	dsb	sy
 8004148:	e7fe      	b.n	8004148 <prvTimerTask+0x194>
 800414a:	9903      	ldr	r1, [sp, #12]
 800414c:	61a1      	str	r1, [r4, #24]
 800414e:	b941      	cbnz	r1, 8004162 <prvTimerTask+0x1ae>
 8004150:	f04f 0350 	mov.w	r3, #80	; 0x50
 8004154:	f383 8811 	msr	BASEPRI, r3
 8004158:	f3bf 8f6f 	isb	sy
 800415c:	f3bf 8f4f 	dsb	sy
 8004160:	e7fe      	b.n	8004160 <prvTimerTask+0x1ac>
 8004162:	465b      	mov	r3, fp
 8004164:	465a      	mov	r2, fp
 8004166:	4459      	add	r1, fp
 8004168:	4620      	mov	r0, r4
 800416a:	f7ff fe69 	bl	8003e40 <prvInsertTimerInActiveList>
 800416e:	e743      	b.n	8003ff8 <prvTimerTask+0x44>
 8004170:	20000c58 	.word	0x20000c58
 8004174:	20000d28 	.word	0x20000d28
 8004178:	20000c5c 	.word	0x20000c5c
 800417c:	20000d7c 	.word	0x20000d7c
 8004180:	e000ed04 	.word	0xe000ed04

08004184 <prvTaskExitError>:
 8004184:	2300      	movs	r3, #0
 8004186:	b082      	sub	sp, #8
 8004188:	9301      	str	r3, [sp, #4]
 800418a:	4b0d      	ldr	r3, [pc, #52]	; (80041c0 <prvTaskExitError+0x3c>)
 800418c:	681b      	ldr	r3, [r3, #0]
 800418e:	3301      	adds	r3, #1
 8004190:	d008      	beq.n	80041a4 <prvTaskExitError+0x20>
 8004192:	f04f 0350 	mov.w	r3, #80	; 0x50
 8004196:	f383 8811 	msr	BASEPRI, r3
 800419a:	f3bf 8f6f 	isb	sy
 800419e:	f3bf 8f4f 	dsb	sy
 80041a2:	e7fe      	b.n	80041a2 <prvTaskExitError+0x1e>
 80041a4:	f04f 0350 	mov.w	r3, #80	; 0x50
 80041a8:	f383 8811 	msr	BASEPRI, r3
 80041ac:	f3bf 8f6f 	isb	sy
 80041b0:	f3bf 8f4f 	dsb	sy
 80041b4:	9b01      	ldr	r3, [sp, #4]
 80041b6:	2b00      	cmp	r3, #0
 80041b8:	d0fc      	beq.n	80041b4 <prvTaskExitError+0x30>
 80041ba:	b002      	add	sp, #8
 80041bc:	4770      	bx	lr
 80041be:	bf00      	nop
 80041c0:	20000048 	.word	0x20000048

080041c4 <prvPortStartFirstTask>:
 80041c4:	4806      	ldr	r0, [pc, #24]	; (80041e0 <prvPortStartFirstTask+0x1c>)
 80041c6:	6800      	ldr	r0, [r0, #0]
 80041c8:	6800      	ldr	r0, [r0, #0]
 80041ca:	f380 8808 	msr	MSP, r0
 80041ce:	b662      	cpsie	i
 80041d0:	b661      	cpsie	f
 80041d2:	f3bf 8f4f 	dsb	sy
 80041d6:	f3bf 8f6f 	isb	sy
 80041da:	df00      	svc	0
 80041dc:	bf00      	nop
 80041de:	0000      	.short	0x0000
 80041e0:	e000ed08 	.word	0xe000ed08

080041e4 <pxPortInitialiseStack>:
 80041e4:	f04f 7380 	mov.w	r3, #16777216	; 0x1000000
 80041e8:	f840 3c04 	str.w	r3, [r0, #-4]
 80041ec:	4b05      	ldr	r3, [pc, #20]	; (8004204 <pxPortInitialiseStack+0x20>)
 80041ee:	f021 0101 	bic.w	r1, r1, #1
 80041f2:	f840 1c08 	str.w	r1, [r0, #-8]
 80041f6:	f840 3c0c 	str.w	r3, [r0, #-12]
 80041fa:	f840 2c20 	str.w	r2, [r0, #-32]
 80041fe:	3840      	subs	r0, #64	; 0x40
 8004200:	4770      	bx	lr
 8004202:	bf00      	nop
 8004204:	08004185 	.word	0x08004185
	...

08004210 <SVC_Handler>:
 8004210:	4b07      	ldr	r3, [pc, #28]	; (8004230 <pxCurrentTCBConst2>)
 8004212:	6819      	ldr	r1, [r3, #0]
 8004214:	6808      	ldr	r0, [r1, #0]
 8004216:	e8b0 0ff0 	ldmia.w	r0!, {r4, r5, r6, r7, r8, r9, sl, fp}
 800421a:	f380 8809 	msr	PSP, r0
 800421e:	f3bf 8f6f 	isb	sy
 8004222:	f04f 0000 	mov.w	r0, #0
 8004226:	f380 8811 	msr	BASEPRI, r0
 800422a:	f04e 0e0d 	orr.w	lr, lr, #13
 800422e:	4770      	bx	lr

08004230 <pxCurrentTCBConst2>:
 8004230:	2000075c 	.word	0x2000075c

08004234 <vPortEnterCritical>:
 8004234:	f04f 0350 	mov.w	r3, #80	; 0x50
 8004238:	f383 8811 	msr	BASEPRI, r3
 800423c:	f3bf 8f6f 	isb	sy
 8004240:	f3bf 8f4f 	dsb	sy
 8004244:	4a0a      	ldr	r2, [pc, #40]	; (8004270 <vPortEnterCritical+0x3c>)
 8004246:	6813      	ldr	r3, [r2, #0]
 8004248:	3301      	adds	r3, #1
 800424a:	2b01      	cmp	r3, #1
 800424c:	6013      	str	r3, [r2, #0]
 800424e:	d10d      	bne.n	800426c <vPortEnterCritical+0x38>
 8004250:	4b08      	ldr	r3, [pc, #32]	; (8004274 <vPortEnterCritical+0x40>)
 8004252:	681b      	ldr	r3, [r3, #0]
 8004254:	f013 0fff 	tst.w	r3, #255	; 0xff
 8004258:	d008      	beq.n	800426c <vPortEnterCritical+0x38>
 800425a:	f04f 0350 	mov.w	r3, #80	; 0x50
 800425e:	f383 8811 	msr	BASEPRI, r3
 8004262:	f3bf 8f6f 	isb	sy
 8004266:	f3bf 8f4f 	dsb	sy
 800426a:	e7fe      	b.n	800426a <vPortEnterCritical+0x36>
 800426c:	4770      	bx	lr
 800426e:	bf00      	nop
 8004270:	20000048 	.word	0x20000048
 8004274:	e000ed04 	.word	0xe000ed04

08004278 <vPortExitCritical>:
 8004278:	4a08      	ldr	r2, [pc, #32]	; (800429c <vPortExitCritical+0x24>)
 800427a:	6813      	ldr	r3, [r2, #0]
 800427c:	b943      	cbnz	r3, 8004290 <vPortExitCritical+0x18>
 800427e:	f04f 0350 	mov.w	r3, #80	; 0x50
 8004282:	f383 8811 	msr	BASEPRI, r3
 8004286:	f3bf 8f6f 	isb	sy
 800428a:	f3bf 8f4f 	dsb	sy
 800428e:	e7fe      	b.n	800428e <vPortExitCritical+0x16>
 8004290:	3b01      	subs	r3, #1
 8004292:	6013      	str	r3, [r2, #0]
 8004294:	b90b      	cbnz	r3, 800429a <vPortExitCritical+0x22>
 8004296:	f383 8811 	msr	BASEPRI, r3
 800429a:	4770      	bx	lr
 800429c:	20000048 	.word	0x20000048

080042a0 <PendSV_Handler>:
 80042a0:	f3ef 8009 	mrs	r0, PSP
 80042a4:	f3bf 8f6f 	isb	sy
 80042a8:	4b0d      	ldr	r3, [pc, #52]	; (80042e0 <pxCurrentTCBConst>)
 80042aa:	681a      	ldr	r2, [r3, #0]
 80042ac:	e920 0ff0 	stmdb	r0!, {r4, r5, r6, r7, r8, r9, sl, fp}
 80042b0:	6010      	str	r0, [r2, #0]
 80042b2:	e92d 4008 	stmdb	sp!, {r3, lr}
 80042b6:	f04f 0050 	mov.w	r0, #80	; 0x50
 80042ba:	f380 8811 	msr	BASEPRI, r0
 80042be:	f7ff fc35 	bl	8003b2c <vTaskSwitchContext>
 80042c2:	f04f 0000 	mov.w	r0, #0
 80042c6:	f380 8811 	msr	BASEPRI, r0
 80042ca:	e8bd 4008 	ldmia.w	sp!, {r3, lr}
 80042ce:	6819      	ldr	r1, [r3, #0]
 80042d0:	6808      	ldr	r0, [r1, #0]
 80042d2:	e8b0 0ff0 	ldmia.w	r0!, {r4, r5, r6, r7, r8, r9, sl, fp}
 80042d6:	f380 8809 	msr	PSP, r0
 80042da:	f3bf 8f6f 	isb	sy
 80042de:	4770      	bx	lr

080042e0 <pxCurrentTCBConst>:
 80042e0:	2000075c 	.word	0x2000075c

080042e4 <SysTick_Handler>:
 80042e4:	b508      	push	{r3, lr}
 80042e6:	f04f 0350 	mov.w	r3, #80	; 0x50
 80042ea:	f383 8811 	msr	BASEPRI, r3
 80042ee:	f3bf 8f6f 	isb	sy
 80042f2:	f3bf 8f4f 	dsb	sy
 80042f6:	f7ff faf1 	bl	80038dc <xTaskIncrementTick>
 80042fa:	b118      	cbz	r0, 8004304 <SysTick_Handler+0x20>
 80042fc:	f04f 5280 	mov.w	r2, #268435456	; 0x10000000
 8004300:	4b02      	ldr	r3, [pc, #8]	; (800430c <SysTick_Handler+0x28>)
 8004302:	601a      	str	r2, [r3, #0]
 8004304:	2300      	movs	r3, #0
 8004306:	f383 8811 	msr	BASEPRI, r3
 800430a:	bd08      	pop	{r3, pc}
 800430c:	e000ed04 	.word	0xe000ed04

08004310 <vPortSetupTimerInterrupt>:
 8004310:	2300      	movs	r3, #0
 8004312:	4a08      	ldr	r2, [pc, #32]	; (8004334 <vPortSetupTimerInterrupt+0x24>)
 8004314:	4908      	ldr	r1, [pc, #32]	; (8004338 <vPortSetupTimerInterrupt+0x28>)
 8004316:	6013      	str	r3, [r2, #0]
 8004318:	600b      	str	r3, [r1, #0]
 800431a:	f44f 717a 	mov.w	r1, #1000	; 0x3e8
 800431e:	4b07      	ldr	r3, [pc, #28]	; (800433c <vPortSetupTimerInterrupt+0x2c>)
 8004320:	681b      	ldr	r3, [r3, #0]
 8004322:	fbb3 f3f1 	udiv	r3, r3, r1
 8004326:	4906      	ldr	r1, [pc, #24]	; (8004340 <vPortSetupTimerInterrupt+0x30>)
 8004328:	3b01      	subs	r3, #1
 800432a:	600b      	str	r3, [r1, #0]
 800432c:	2307      	movs	r3, #7
 800432e:	6013      	str	r3, [r2, #0]
 8004330:	4770      	bx	lr
 8004332:	bf00      	nop
 8004334:	e000e010 	.word	0xe000e010
 8004338:	e000e018 	.word	0xe000e018
 800433c:	20000018 	.word	0x20000018
 8004340:	e000e014 	.word	0xe000e014

08004344 <xPortStartScheduler>:
 8004344:	b513      	push	{r0, r1, r4, lr}
 8004346:	4b27      	ldr	r3, [pc, #156]	; (80043e4 <xPortStartScheduler+0xa0>)
 8004348:	2100      	movs	r1, #0
 800434a:	781a      	ldrb	r2, [r3, #0]
 800434c:	b2d2      	uxtb	r2, r2
 800434e:	9201      	str	r2, [sp, #4]
 8004350:	22ff      	movs	r2, #255	; 0xff
 8004352:	701a      	strb	r2, [r3, #0]
 8004354:	781b      	ldrb	r3, [r3, #0]
 8004356:	4a24      	ldr	r2, [pc, #144]	; (80043e8 <xPortStartScheduler+0xa4>)
 8004358:	b2db      	uxtb	r3, r3
 800435a:	f88d 3003 	strb.w	r3, [sp, #3]
 800435e:	f89d 3003 	ldrb.w	r3, [sp, #3]
 8004362:	f003 0350 	and.w	r3, r3, #80	; 0x50
 8004366:	7013      	strb	r3, [r2, #0]
 8004368:	2207      	movs	r2, #7
 800436a:	4b20      	ldr	r3, [pc, #128]	; (80043ec <xPortStartScheduler+0xa8>)
 800436c:	601a      	str	r2, [r3, #0]
 800436e:	f89d 0003 	ldrb.w	r0, [sp, #3]
 8004372:	1e54      	subs	r4, r2, #1
 8004374:	0600      	lsls	r0, r0, #24
 8004376:	d40d      	bmi.n	8004394 <xPortStartScheduler+0x50>
 8004378:	b101      	cbz	r1, 800437c <xPortStartScheduler+0x38>
 800437a:	601a      	str	r2, [r3, #0]
 800437c:	681a      	ldr	r2, [r3, #0]
 800437e:	2a03      	cmp	r2, #3
 8004380:	d011      	beq.n	80043a6 <xPortStartScheduler+0x62>
 8004382:	f04f 0350 	mov.w	r3, #80	; 0x50
 8004386:	f383 8811 	msr	BASEPRI, r3
 800438a:	f3bf 8f6f 	isb	sy
 800438e:	f3bf 8f4f 	dsb	sy
 8004392:	e7fe      	b.n	8004392 <xPortStartScheduler+0x4e>
 8004394:	f89d 2003 	ldrb.w	r2, [sp, #3]
 8004398:	2101      	movs	r1, #1
 800439a:	0052      	lsls	r2, r2, #1
 800439c:	b2d2      	uxtb	r2, r2
 800439e:	f88d 2003 	strb.w	r2, [sp, #3]
 80043a2:	4622      	mov	r2, r4
 80043a4:	e7e3      	b.n	800436e <xPortStartScheduler+0x2a>
 80043a6:	2400      	movs	r4, #0
 80043a8:	0212      	lsls	r2, r2, #8
 80043aa:	f402 62e0 	and.w	r2, r2, #1792	; 0x700
 80043ae:	601a      	str	r2, [r3, #0]
 80043b0:	9b01      	ldr	r3, [sp, #4]
 80043b2:	4a0c      	ldr	r2, [pc, #48]	; (80043e4 <xPortStartScheduler+0xa0>)
 80043b4:	b2db      	uxtb	r3, r3
 80043b6:	7013      	strb	r3, [r2, #0]
 80043b8:	4b0d      	ldr	r3, [pc, #52]	; (80043f0 <xPortStartScheduler+0xac>)
 80043ba:	681a      	ldr	r2, [r3, #0]
 80043bc:	f442 0270 	orr.w	r2, r2, #15728640	; 0xf00000
 80043c0:	601a      	str	r2, [r3, #0]
 80043c2:	681a      	ldr	r2, [r3, #0]
 80043c4:	f042 4270 	orr.w	r2, r2, #4026531840	; 0xf0000000
 80043c8:	601a      	str	r2, [r3, #0]
 80043ca:	f7ff ffa1 	bl	8004310 <vPortSetupTimerInterrupt>
 80043ce:	4b09      	ldr	r3, [pc, #36]	; (80043f4 <xPortStartScheduler+0xb0>)
 80043d0:	601c      	str	r4, [r3, #0]
 80043d2:	f7ff fef7 	bl	80041c4 <prvPortStartFirstTask>
 80043d6:	f7ff fba9 	bl	8003b2c <vTaskSwitchContext>
 80043da:	f7ff fed3 	bl	8004184 <prvTaskExitError>
 80043de:	4620      	mov	r0, r4
 80043e0:	b002      	add	sp, #8
 80043e2:	bd10      	pop	{r4, pc}
 80043e4:	e000e400 	.word	0xe000e400
 80043e8:	20000d84 	.word	0x20000d84
 80043ec:	20000d88 	.word	0x20000d88
 80043f0:	e000ed20 	.word	0xe000ed20
 80043f4:	20000048 	.word	0x20000048

080043f8 <vPortValidateInterruptPriority>:
 80043f8:	f3ef 8305 	mrs	r3, IPSR
 80043fc:	2b0f      	cmp	r3, #15
 80043fe:	d90e      	bls.n	800441e <vPortValidateInterruptPriority+0x26>
 8004400:	4a10      	ldr	r2, [pc, #64]	; (8004444 <vPortValidateInterruptPriority+0x4c>)
 8004402:	5c9b      	ldrb	r3, [r3, r2]
 8004404:	4a10      	ldr	r2, [pc, #64]	; (8004448 <vPortValidateInterruptPriority+0x50>)
 8004406:	7812      	ldrb	r2, [r2, #0]
 8004408:	429a      	cmp	r2, r3
 800440a:	d908      	bls.n	800441e <vPortValidateInterruptPriority+0x26>
 800440c:	f04f 0350 	mov.w	r3, #80	; 0x50
 8004410:	f383 8811 	msr	BASEPRI, r3
 8004414:	f3bf 8f6f 	isb	sy
 8004418:	f3bf 8f4f 	dsb	sy
 800441c:	e7fe      	b.n	800441c <vPortValidateInterruptPriority+0x24>
 800441e:	4b0b      	ldr	r3, [pc, #44]	; (800444c <vPortValidateInterruptPriority+0x54>)
 8004420:	4a0b      	ldr	r2, [pc, #44]	; (8004450 <vPortValidateInterruptPriority+0x58>)
 8004422:	681b      	ldr	r3, [r3, #0]
 8004424:	6812      	ldr	r2, [r2, #0]
 8004426:	f403 63e0 	and.w	r3, r3, #1792	; 0x700
 800442a:	4293      	cmp	r3, r2
 800442c:	d908      	bls.n	8004440 <vPortValidateInterruptPriority+0x48>
 800442e:	f04f 0350 	mov.w	r3, #80	; 0x50
 8004432:	f383 8811 	msr	BASEPRI, r3
 8004436:	f3bf 8f6f 	isb	sy
 800443a:	f3bf 8f4f 	dsb	sy
 800443e:	e7fe      	b.n	800443e <vPortValidateInterruptPriority+0x46>
 8004440:	4770      	bx	lr
 8004442:	bf00      	nop
 8004444:	e000e3f0 	.word	0xe000e3f0
 8004448:	20000d84 	.word	0x20000d84
 800444c:	e000ed0c 	.word	0xe000ed0c
 8004450:	20000d88 	.word	0x20000d88

08004454 <prvInsertBlockIntoFreeList>:
 8004454:	b510      	push	{r4, lr}
 8004456:	4b0f      	ldr	r3, [pc, #60]	; (8004494 <prvInsertBlockIntoFreeList+0x40>)
 8004458:	681a      	ldr	r2, [r3, #0]
 800445a:	4282      	cmp	r2, r0
 800445c:	d318      	bcc.n	8004490 <prvInsertBlockIntoFreeList+0x3c>
 800445e:	685c      	ldr	r4, [r3, #4]
 8004460:	1919      	adds	r1, r3, r4
 8004462:	4288      	cmp	r0, r1
 8004464:	bf01      	itttt	eq
 8004466:	6841      	ldreq	r1, [r0, #4]
 8004468:	4618      	moveq	r0, r3
 800446a:	1909      	addeq	r1, r1, r4
 800446c:	6059      	streq	r1, [r3, #4]
 800446e:	6844      	ldr	r4, [r0, #4]
 8004470:	1901      	adds	r1, r0, r4
 8004472:	428a      	cmp	r2, r1
 8004474:	d107      	bne.n	8004486 <prvInsertBlockIntoFreeList+0x32>
 8004476:	4908      	ldr	r1, [pc, #32]	; (8004498 <prvInsertBlockIntoFreeList+0x44>)
 8004478:	6809      	ldr	r1, [r1, #0]
 800447a:	428a      	cmp	r2, r1
 800447c:	bf1f      	itttt	ne
 800447e:	6851      	ldrne	r1, [r2, #4]
 8004480:	6812      	ldrne	r2, [r2, #0]
 8004482:	1909      	addne	r1, r1, r4
 8004484:	6041      	strne	r1, [r0, #4]
 8004486:	4298      	cmp	r0, r3
 8004488:	6002      	str	r2, [r0, #0]
 800448a:	bf18      	it	ne
 800448c:	6018      	strne	r0, [r3, #0]
 800448e:	bd10      	pop	{r4, pc}
 8004490:	4613      	mov	r3, r2
 8004492:	e7e1      	b.n	8004458 <prvInsertBlockIntoFreeList+0x4>
 8004494:	20001b48 	.word	0x20001b48
 8004498:	20000d8c 	.word	0x20000d8c

0800449c <pvPortMalloc>:
 800449c:	e92d 41f0 	stmdb	sp!, {r4, r5, r6, r7, r8, lr}
 80044a0:	4604      	mov	r4, r0
 80044a2:	f7ff fa0d 	bl	80038c0 <vTaskSuspendAll>
 80044a6:	493d      	ldr	r1, [pc, #244]	; (800459c <pvPortMalloc+0x100>)
 80044a8:	4d3d      	ldr	r5, [pc, #244]	; (80045a0 <pvPortMalloc+0x104>)
 80044aa:	680b      	ldr	r3, [r1, #0]
 80044ac:	b9fb      	cbnz	r3, 80044ee <pvPortMalloc+0x52>
 80044ae:	4a3d      	ldr	r2, [pc, #244]	; (80045a4 <pvPortMalloc+0x108>)
 80044b0:	2000      	movs	r0, #0
 80044b2:	0756      	lsls	r6, r2, #29
 80044b4:	f602 53ac 	addw	r3, r2, #3500	; 0xdac
 80044b8:	bf0f      	iteee	eq
 80044ba:	f640 53ac 	movweq	r3, #3500	; 0xdac
 80044be:	3207      	addne	r2, #7
 80044c0:	f022 0207 	bicne.w	r2, r2, #7
 80044c4:	1a9b      	subne	r3, r3, r2
 80044c6:	4413      	add	r3, r2
 80044c8:	4e37      	ldr	r6, [pc, #220]	; (80045a8 <pvPortMalloc+0x10c>)
 80044ca:	3b08      	subs	r3, #8
 80044cc:	f023 0307 	bic.w	r3, r3, #7
 80044d0:	6070      	str	r0, [r6, #4]
 80044d2:	6032      	str	r2, [r6, #0]
 80044d4:	e9c3 0000 	strd	r0, r0, [r3]
 80044d8:	1a98      	subs	r0, r3, r2
 80044da:	600b      	str	r3, [r1, #0]
 80044dc:	e9c2 3000 	strd	r3, r0, [r2]
 80044e0:	4b32      	ldr	r3, [pc, #200]	; (80045ac <pvPortMalloc+0x110>)
 80044e2:	6018      	str	r0, [r3, #0]
 80044e4:	4b32      	ldr	r3, [pc, #200]	; (80045b0 <pvPortMalloc+0x114>)
 80044e6:	6018      	str	r0, [r3, #0]
 80044e8:	f04f 4300 	mov.w	r3, #2147483648	; 0x80000000
 80044ec:	602b      	str	r3, [r5, #0]
 80044ee:	682f      	ldr	r7, [r5, #0]
 80044f0:	4227      	tst	r7, r4
 80044f2:	d14d      	bne.n	8004590 <pvPortMalloc+0xf4>
 80044f4:	2c00      	cmp	r4, #0
 80044f6:	d03e      	beq.n	8004576 <pvPortMalloc+0xda>
 80044f8:	f104 0308 	add.w	r3, r4, #8
 80044fc:	0758      	lsls	r0, r3, #29
 80044fe:	bf1c      	itt	ne
 8004500:	f023 0307 	bicne.w	r3, r3, #7
 8004504:	3308      	addne	r3, #8
 8004506:	2b00      	cmp	r3, #0
 8004508:	d042      	beq.n	8004590 <pvPortMalloc+0xf4>
 800450a:	4a29      	ldr	r2, [pc, #164]	; (80045b0 <pvPortMalloc+0x114>)
 800450c:	6816      	ldr	r6, [r2, #0]
 800450e:	4690      	mov	r8, r2
 8004510:	429e      	cmp	r6, r3
 8004512:	d33d      	bcc.n	8004590 <pvPortMalloc+0xf4>
 8004514:	4a24      	ldr	r2, [pc, #144]	; (80045a8 <pvPortMalloc+0x10c>)
 8004516:	6815      	ldr	r5, [r2, #0]
 8004518:	6868      	ldr	r0, [r5, #4]
 800451a:	4298      	cmp	r0, r3
 800451c:	d201      	bcs.n	8004522 <pvPortMalloc+0x86>
 800451e:	682c      	ldr	r4, [r5, #0]
 8004520:	b9a4      	cbnz	r4, 800454c <pvPortMalloc+0xb0>
 8004522:	6809      	ldr	r1, [r1, #0]
 8004524:	42a9      	cmp	r1, r5
 8004526:	d033      	beq.n	8004590 <pvPortMalloc+0xf4>
 8004528:	6829      	ldr	r1, [r5, #0]
 800452a:	6814      	ldr	r4, [r2, #0]
 800452c:	6011      	str	r1, [r2, #0]
 800452e:	1ac2      	subs	r2, r0, r3
 8004530:	2a10      	cmp	r2, #16
 8004532:	d912      	bls.n	800455a <pvPortMalloc+0xbe>
 8004534:	18e8      	adds	r0, r5, r3
 8004536:	0741      	lsls	r1, r0, #29
 8004538:	d00b      	beq.n	8004552 <pvPortMalloc+0xb6>
 800453a:	f04f 0350 	mov.w	r3, #80	; 0x50
 800453e:	f383 8811 	msr	BASEPRI, r3
 8004542:	f3bf 8f6f 	isb	sy
 8004546:	f3bf 8f4f 	dsb	sy
 800454a:	e7fe      	b.n	800454a <pvPortMalloc+0xae>
 800454c:	462a      	mov	r2, r5
 800454e:	4625      	mov	r5, r4
 8004550:	e7e2      	b.n	8004518 <pvPortMalloc+0x7c>
 8004552:	6042      	str	r2, [r0, #4]
 8004554:	606b      	str	r3, [r5, #4]
 8004556:	f7ff ff7d 	bl	8004454 <prvInsertBlockIntoFreeList>
 800455a:	686b      	ldr	r3, [r5, #4]
 800455c:	4913      	ldr	r1, [pc, #76]	; (80045ac <pvPortMalloc+0x110>)
 800455e:	1af6      	subs	r6, r6, r3
 8004560:	431f      	orrs	r7, r3
 8004562:	2300      	movs	r3, #0
 8004564:	6808      	ldr	r0, [r1, #0]
 8004566:	f8c8 6000 	str.w	r6, [r8]
 800456a:	4286      	cmp	r6, r0
 800456c:	bf38      	it	cc
 800456e:	600e      	strcc	r6, [r1, #0]
 8004570:	3408      	adds	r4, #8
 8004572:	606f      	str	r7, [r5, #4]
 8004574:	602b      	str	r3, [r5, #0]
 8004576:	f7ff fa41 	bl	80039fc <xTaskResumeAll>
 800457a:	0763      	lsls	r3, r4, #29
 800457c:	d00a      	beq.n	8004594 <pvPortMalloc+0xf8>
 800457e:	f04f 0350 	mov.w	r3, #80	; 0x50
 8004582:	f383 8811 	msr	BASEPRI, r3
 8004586:	f3bf 8f6f 	isb	sy
 800458a:	f3bf 8f4f 	dsb	sy
 800458e:	e7fe      	b.n	800458e <pvPortMalloc+0xf2>
 8004590:	2400      	movs	r4, #0
 8004592:	e7f0      	b.n	8004576 <pvPortMalloc+0xda>
 8004594:	4620      	mov	r0, r4
 8004596:	e8bd 81f0 	ldmia.w	sp!, {r4, r5, r6, r7, r8, pc}
 800459a:	bf00      	nop
 800459c:	20000d8c 	.word	0x20000d8c
 80045a0:	20001b3c 	.word	0x20001b3c
 80045a4:	20000d90 	.word	0x20000d90
 80045a8:	20001b48 	.word	0x20001b48
 80045ac:	20001b44 	.word	0x20001b44
 80045b0:	20001b40 	.word	0x20001b40

080045b4 <vPortFree>:
 80045b4:	b510      	push	{r4, lr}
 80045b6:	4604      	mov	r4, r0
 80045b8:	b370      	cbz	r0, 8004618 <vPortFree+0x64>
 80045ba:	4a18      	ldr	r2, [pc, #96]	; (800461c <vPortFree+0x68>)
 80045bc:	f850 3c04 	ldr.w	r3, [r0, #-4]
 80045c0:	6812      	ldr	r2, [r2, #0]
 80045c2:	4213      	tst	r3, r2
 80045c4:	d108      	bne.n	80045d8 <vPortFree+0x24>
 80045c6:	f04f 0350 	mov.w	r3, #80	; 0x50
 80045ca:	f383 8811 	msr	BASEPRI, r3
 80045ce:	f3bf 8f6f 	isb	sy
 80045d2:	f3bf 8f4f 	dsb	sy
 80045d6:	e7fe      	b.n	80045d6 <vPortFree+0x22>
 80045d8:	f850 1c08 	ldr.w	r1, [r0, #-8]
 80045dc:	b141      	cbz	r1, 80045f0 <vPortFree+0x3c>
 80045de:	f04f 0350 	mov.w	r3, #80	; 0x50
 80045e2:	f383 8811 	msr	BASEPRI, r3
 80045e6:	f3bf 8f6f 	isb	sy
 80045ea:	f3bf 8f4f 	dsb	sy
 80045ee:	e7fe      	b.n	80045ee <vPortFree+0x3a>
 80045f0:	ea23 0302 	bic.w	r3, r3, r2
 80045f4:	f840 3c04 	str.w	r3, [r0, #-4]
 80045f8:	f7ff f962 	bl	80038c0 <vTaskSuspendAll>
 80045fc:	4a08      	ldr	r2, [pc, #32]	; (8004620 <vPortFree+0x6c>)
 80045fe:	f854 3c04 	ldr.w	r3, [r4, #-4]
 8004602:	6811      	ldr	r1, [r2, #0]
 8004604:	f1a4 0008 	sub.w	r0, r4, #8
 8004608:	440b      	add	r3, r1
 800460a:	6013      	str	r3, [r2, #0]
 800460c:	f7ff ff22 	bl	8004454 <prvInsertBlockIntoFreeList>
 8004610:	e8bd 4010 	ldmia.w	sp!, {r4, lr}
 8004614:	f7ff b9f2 	b.w	80039fc <xTaskResumeAll>
 8004618:	bd10      	pop	{r4, pc}
 800461a:	bf00      	nop
 800461c:	20001b3c 	.word	0x20001b3c
 8004620:	20001b40 	.word	0x20001b40

08004624 <__libc_init_array>:
 8004624:	b570      	push	{r4, r5, r6, lr}
 8004626:	2500      	movs	r5, #0
 8004628:	4e0c      	ldr	r6, [pc, #48]	; (800465c <__libc_init_array+0x38>)
 800462a:	4c0d      	ldr	r4, [pc, #52]	; (8004660 <__libc_init_array+0x3c>)
 800462c:	1ba4      	subs	r4, r4, r6
 800462e:	10a4      	asrs	r4, r4, #2
 8004630:	42a5      	cmp	r5, r4
 8004632:	d109      	bne.n	8004648 <__libc_init_array+0x24>
 8004634:	f000 f8a6 	bl	8004784 <_init>
 8004638:	2500      	movs	r5, #0
 800463a:	4e0a      	ldr	r6, [pc, #40]	; (8004664 <__libc_init_array+0x40>)
 800463c:	4c0a      	ldr	r4, [pc, #40]	; (8004668 <__libc_init_array+0x44>)
 800463e:	1ba4      	subs	r4, r4, r6
 8004640:	10a4      	asrs	r4, r4, #2
 8004642:	42a5      	cmp	r5, r4
 8004644:	d105      	bne.n	8004652 <__libc_init_array+0x2e>
 8004646:	bd70      	pop	{r4, r5, r6, pc}
 8004648:	f856 3025 	ldr.w	r3, [r6, r5, lsl #2]
 800464c:	4798      	blx	r3
 800464e:	3501      	adds	r5, #1
 8004650:	e7ee      	b.n	8004630 <__libc_init_array+0xc>
 8004652:	f856 3025 	ldr.w	r3, [r6, r5, lsl #2]
 8004656:	4798      	blx	r3
 8004658:	3501      	adds	r5, #1
 800465a:	e7f2      	b.n	8004642 <__libc_init_array+0x1e>
 800465c:	080055e0 	.word	0x080055e0
 8004660:	080055e0 	.word	0x080055e0
 8004664:	080055e0 	.word	0x080055e0
 8004668:	080055e4 	.word	0x080055e4

0800466c <memcmp>:
 800466c:	b530      	push	{r4, r5, lr}
 800466e:	2400      	movs	r4, #0
 8004670:	42a2      	cmp	r2, r4
 8004672:	d101      	bne.n	8004678 <memcmp+0xc>
 8004674:	2000      	movs	r0, #0
 8004676:	e007      	b.n	8004688 <memcmp+0x1c>
 8004678:	5d03      	ldrb	r3, [r0, r4]
 800467a:	3401      	adds	r4, #1
 800467c:	190d      	adds	r5, r1, r4
 800467e:	f815 5c01 	ldrb.w	r5, [r5, #-1]
 8004682:	42ab      	cmp	r3, r5
 8004684:	d0f4      	beq.n	8004670 <memcmp+0x4>
 8004686:	1b58      	subs	r0, r3, r5
 8004688:	bd30      	pop	{r4, r5, pc}

0800468a <memcpy>:
 800468a:	b510      	push	{r4, lr}
 800468c:	1e43      	subs	r3, r0, #1
 800468e:	440a      	add	r2, r1
 8004690:	4291      	cmp	r1, r2
 8004692:	d100      	bne.n	8004696 <memcpy+0xc>
 8004694:	bd10      	pop	{r4, pc}
 8004696:	f811 4b01 	ldrb.w	r4, [r1], #1
 800469a:	f803 4f01 	strb.w	r4, [r3, #1]!
 800469e:	e7f7      	b.n	8004690 <memcpy+0x6>

080046a0 <memmove>:
 80046a0:	4288      	cmp	r0, r1
 80046a2:	b510      	push	{r4, lr}
 80046a4:	eb01 0302 	add.w	r3, r1, r2
 80046a8:	d807      	bhi.n	80046ba <memmove+0x1a>
 80046aa:	1e42      	subs	r2, r0, #1
 80046ac:	4299      	cmp	r1, r3
 80046ae:	d00a      	beq.n	80046c6 <memmove+0x26>
 80046b0:	f811 4b01 	ldrb.w	r4, [r1], #1
 80046b4:	f802 4f01 	strb.w	r4, [r2, #1]!
 80046b8:	e7f8      	b.n	80046ac <memmove+0xc>
 80046ba:	4283      	cmp	r3, r0
 80046bc:	d9f5      	bls.n	80046aa <memmove+0xa>
 80046be:	1881      	adds	r1, r0, r2
 80046c0:	1ad2      	subs	r2, r2, r3
 80046c2:	42d3      	cmn	r3, r2
 80046c4:	d100      	bne.n	80046c8 <memmove+0x28>
 80046c6:	bd10      	pop	{r4, pc}
 80046c8:	f813 4d01 	ldrb.w	r4, [r3, #-1]!
 80046cc:	f801 4d01 	strb.w	r4, [r1, #-1]!
 80046d0:	e7f7      	b.n	80046c2 <memmove+0x22>

080046d2 <memset>:
 80046d2:	4603      	mov	r3, r0
 80046d4:	4402      	add	r2, r0
 80046d6:	4293      	cmp	r3, r2
 80046d8:	d100      	bne.n	80046dc <memset+0xa>
 80046da:	4770      	bx	lr
 80046dc:	f803 1b01 	strb.w	r1, [r3], #1
 80046e0:	e7f9      	b.n	80046d6 <memset+0x4>

080046e2 <strcat>:
 80046e2:	4603      	mov	r3, r0
 80046e4:	b510      	push	{r4, lr}
 80046e6:	781a      	ldrb	r2, [r3, #0]
 80046e8:	1c5c      	adds	r4, r3, #1
 80046ea:	b93a      	cbnz	r2, 80046fc <strcat+0x1a>
 80046ec:	3b01      	subs	r3, #1
 80046ee:	f811 2b01 	ldrb.w	r2, [r1], #1
 80046f2:	f803 2f01 	strb.w	r2, [r3, #1]!
 80046f6:	2a00      	cmp	r2, #0
 80046f8:	d1f9      	bne.n	80046ee <strcat+0xc>
 80046fa:	bd10      	pop	{r4, pc}
 80046fc:	4623      	mov	r3, r4
 80046fe:	e7f2      	b.n	80046e6 <strcat+0x4>

08004700 <strchr>:
 8004700:	b2c9      	uxtb	r1, r1
 8004702:	4603      	mov	r3, r0
 8004704:	f810 2b01 	ldrb.w	r2, [r0], #1
 8004708:	b11a      	cbz	r2, 8004712 <strchr+0x12>
 800470a:	428a      	cmp	r2, r1
 800470c:	d1f9      	bne.n	8004702 <strchr+0x2>
 800470e:	4618      	mov	r0, r3
 8004710:	4770      	bx	lr
 8004712:	2900      	cmp	r1, #0
 8004714:	bf18      	it	ne
 8004716:	2300      	movne	r3, #0
 8004718:	e7f9      	b.n	800470e <strchr+0xe>

0800471a <strcpy>:
 800471a:	4603      	mov	r3, r0
 800471c:	f811 2b01 	ldrb.w	r2, [r1], #1
 8004720:	f803 2b01 	strb.w	r2, [r3], #1
 8004724:	2a00      	cmp	r2, #0
 8004726:	d1f9      	bne.n	800471c <strcpy+0x2>
 8004728:	4770      	bx	lr

0800472a <strncmp>:
 800472a:	b510      	push	{r4, lr}
 800472c:	b16a      	cbz	r2, 800474a <strncmp+0x20>
 800472e:	3901      	subs	r1, #1
 8004730:	1884      	adds	r4, r0, r2
 8004732:	f810 3b01 	ldrb.w	r3, [r0], #1
 8004736:	f811 2f01 	ldrb.w	r2, [r1, #1]!
 800473a:	4293      	cmp	r3, r2
 800473c:	d103      	bne.n	8004746 <strncmp+0x1c>
 800473e:	42a0      	cmp	r0, r4
 8004740:	d001      	beq.n	8004746 <strncmp+0x1c>
 8004742:	2b00      	cmp	r3, #0
 8004744:	d1f5      	bne.n	8004732 <strncmp+0x8>
 8004746:	1a98      	subs	r0, r3, r2
 8004748:	bd10      	pop	{r4, pc}
 800474a:	4610      	mov	r0, r2
 800474c:	e7fc      	b.n	8004748 <strncmp+0x1e>

0800474e <strstr>:
 800474e:	b5f0      	push	{r4, r5, r6, r7, lr}
 8004750:	7803      	ldrb	r3, [r0, #0]
 8004752:	b17b      	cbz	r3, 8004774 <strstr+0x26>
 8004754:	4604      	mov	r4, r0
 8004756:	7823      	ldrb	r3, [r4, #0]
 8004758:	4620      	mov	r0, r4
 800475a:	1c66      	adds	r6, r4, #1
 800475c:	b17b      	cbz	r3, 800477e <strstr+0x30>
 800475e:	1e4a      	subs	r2, r1, #1
 8004760:	1e63      	subs	r3, r4, #1
 8004762:	f812 5f01 	ldrb.w	r5, [r2, #1]!
 8004766:	b14d      	cbz	r5, 800477c <strstr+0x2e>
 8004768:	f813 7f01 	ldrb.w	r7, [r3, #1]!
 800476c:	4634      	mov	r4, r6
 800476e:	42af      	cmp	r7, r5
 8004770:	d0f7      	beq.n	8004762 <strstr+0x14>
 8004772:	e7f0      	b.n	8004756 <strstr+0x8>
 8004774:	780b      	ldrb	r3, [r1, #0]
 8004776:	2b00      	cmp	r3, #0
 8004778:	bf18      	it	ne
 800477a:	2000      	movne	r0, #0
 800477c:	bdf0      	pop	{r4, r5, r6, r7, pc}
 800477e:	4618      	mov	r0, r3
 8004780:	e7fc      	b.n	800477c <strstr+0x2e>
	...

08004784 <_init>:
 8004784:	b5f8      	push	{r3, r4, r5, r6, r7, lr}
 8004786:	bf00      	nop
 8004788:	bcf8      	pop	{r3, r4, r5, r6, r7}
 800478a:	bc08      	pop	{r3}
 800478c:	469e      	mov	lr, r3
 800478e:	4770      	bx	lr

08004790 <_fini>:
 8004790:	b5f8      	push	{r3, r4, r5, r6, r7, lr}
 8004792:	bf00      	nop
 8004794:	bcf8      	pop	{r3, r4, r5, r6, r7}
 8004796:	bc08      	pop	{r3}
 8004798:	469e      	mov	lr, r3
 800479a:	4770      	bx	lr
